
core_MSS_CM3_0_app:     file format elf32-littlearm

Sections:
Idx Name          Size      VMA       LMA       File off  Algn
  0 .text         00001568  20000000  20000000  00008000  2**4
                  CONTENTS, ALLOC, LOAD, READONLY, CODE
  1 .data         00000004  20001568  20001568  00009568  2**2
                  CONTENTS, ALLOC, LOAD, DATA
  2 .bss          000000ec  2000156c  2000156c  0000956c  2**2
                  ALLOC
  3 .stack        00003000  20001658  20001658  0000956c  2**0
                  ALLOC
  4 .comment      000000d7  00000000  00000000  0000956c  2**0
                  CONTENTS, READONLY
  5 .debug_aranges 00000340  00000000  00000000  00009643  2**0
                  CONTENTS, READONLY, DEBUGGING
  6 .debug_pubnames 00000695  00000000  00000000  00009983  2**0
                  CONTENTS, READONLY, DEBUGGING
  7 .debug_info   000034ae  00000000  00000000  0000a018  2**0
                  CONTENTS, READONLY, DEBUGGING
  8 .debug_abbrev 000006fe  00000000  00000000  0000d4c6  2**0
                  CONTENTS, READONLY, DEBUGGING
  9 .debug_line   000012ea  00000000  00000000  0000dbc4  2**0
                  CONTENTS, READONLY, DEBUGGING
 10 .debug_frame  00000ac0  00000000  00000000  0000eeb0  2**2
                  CONTENTS, READONLY, DEBUGGING
 11 .debug_str    00001b84  00000000  00000000  0000f970  2**0
                  CONTENTS, READONLY, DEBUGGING
 12 .debug_loc    000011bf  00000000  00000000  000114f4  2**0
                  CONTENTS, READONLY, DEBUGGING
 13 .debug_macinfo 0001887b  00000000  00000000  000126b3  2**0
                  CONTENTS, READONLY, DEBUGGING
 14 .ARM.attributes 00000025  00000000  00000000  0002af2e  2**0
                  CONTENTS, READONLY
 15 .debug_ranges 00000330  00000000  00000000  0002af53  2**0
                  CONTENTS, READONLY, DEBUGGING

Disassembly of section .text:

20000000 <__text_start>:
20000000:	20010000 	.word	0x20010000
20000004:	20000299 	.word	0x20000299
20000008:	20000309 	.word	0x20000309
2000000c:	2000030b 	.word	0x2000030b
20000010:	2000030d 	.word	0x2000030d
20000014:	2000030f 	.word	0x2000030f
20000018:	20000311 	.word	0x20000311
	...
2000002c:	20000313 	.word	0x20000313
20000030:	20000315 	.word	0x20000315
20000034:	00000000 	.word	0x00000000
20000038:	20000317 	.word	0x20000317
2000003c:	20000319 	.word	0x20000319
20000040:	2000031b 	.word	0x2000031b
20000044:	2000031d 	.word	0x2000031d
20000048:	2000031f 	.word	0x2000031f
2000004c:	20000321 	.word	0x20000321
20000050:	20000323 	.word	0x20000323
20000054:	20000325 	.word	0x20000325
20000058:	20000327 	.word	0x20000327
2000005c:	20000329 	.word	0x20000329
20000060:	2000032b 	.word	0x2000032b
20000064:	2000032d 	.word	0x2000032d
20000068:	2000032f 	.word	0x2000032f
2000006c:	20000331 	.word	0x20000331
20000070:	20000333 	.word	0x20000333
20000074:	20000335 	.word	0x20000335
20000078:	20001389 	.word	0x20001389
2000007c:	20000339 	.word	0x20000339
20000080:	2000033b 	.word	0x2000033b
20000084:	200013b5 	.word	0x200013b5
20000088:	2000033f 	.word	0x2000033f
2000008c:	20000341 	.word	0x20000341
20000090:	20000343 	.word	0x20000343
20000094:	20000345 	.word	0x20000345
20000098:	20000347 	.word	0x20000347
2000009c:	20000349 	.word	0x20000349
200000a0:	2000034b 	.word	0x2000034b
	...
200000bc:	2000034d 	.word	0x2000034d
200000c0:	2000034f 	.word	0x2000034f
200000c4:	20000351 	.word	0x20000351
200000c8:	20000353 	.word	0x20000353
200000cc:	20000355 	.word	0x20000355
200000d0:	20000357 	.word	0x20000357
200000d4:	20000359 	.word	0x20000359
200000d8:	2000035b 	.word	0x2000035b
200000dc:	2000035d 	.word	0x2000035d
200000e0:	2000035f 	.word	0x2000035f
200000e4:	20000361 	.word	0x20000361
200000e8:	20000363 	.word	0x20000363
200000ec:	20000365 	.word	0x20000365
200000f0:	20000367 	.word	0x20000367
200000f4:	20000369 	.word	0x20000369
200000f8:	2000036b 	.word	0x2000036b
200000fc:	2000036d 	.word	0x2000036d
20000100:	2000036f 	.word	0x2000036f
20000104:	20000371 	.word	0x20000371
20000108:	20000373 	.word	0x20000373
2000010c:	20000375 	.word	0x20000375
20000110:	20000377 	.word	0x20000377
20000114:	20000379 	.word	0x20000379
20000118:	2000037b 	.word	0x2000037b
2000011c:	2000037d 	.word	0x2000037d
20000120:	2000037f 	.word	0x2000037f
20000124:	20000381 	.word	0x20000381
20000128:	20000383 	.word	0x20000383
2000012c:	20000385 	.word	0x20000385
20000130:	20000387 	.word	0x20000387
20000134:	20000389 	.word	0x20000389
20000138:	2000038b 	.word	0x2000038b
2000013c:	2000038d 	.word	0x2000038d
20000140:	2000038f 	.word	0x2000038f
20000144:	20000391 	.word	0x20000391
20000148:	20000393 	.word	0x20000393
2000014c:	20000395 	.word	0x20000395
20000150:	20000397 	.word	0x20000397
20000154:	20000399 	.word	0x20000399
20000158:	2000039b 	.word	0x2000039b
2000015c:	2000039d 	.word	0x2000039d
20000160:	2000039f 	.word	0x2000039f
20000164:	200003a1 	.word	0x200003a1
20000168:	200003a3 	.word	0x200003a3
2000016c:	200003a5 	.word	0x200003a5
20000170:	200003a7 	.word	0x200003a7
20000174:	200003a9 	.word	0x200003a9
20000178:	200003ab 	.word	0x200003ab
2000017c:	200003ad 	.word	0x200003ad
20000180:	200003af 	.word	0x200003af
20000184:	200003b1 	.word	0x200003b1
20000188:	200003b3 	.word	0x200003b3
2000018c:	200003b5 	.word	0x200003b5
20000190:	200003b7 	.word	0x200003b7
20000194:	200003b9 	.word	0x200003b9
20000198:	200003bb 	.word	0x200003bb
2000019c:	200003bd 	.word	0x200003bd
200001a0:	200003bf 	.word	0x200003bf
200001a4:	200003c1 	.word	0x200003c1
200001a8:	200003c3 	.word	0x200003c3
200001ac:	200003c5 	.word	0x200003c5
200001b0:	200003c7 	.word	0x200003c7
200001b4:	200003c9 	.word	0x200003c9
200001b8:	200003cb 	.word	0x200003cb
200001bc:	200003cd 	.word	0x200003cd
200001c0:	200003cf 	.word	0x200003cf
200001c4:	200003d1 	.word	0x200003d1
200001c8:	200003d3 	.word	0x200003d3
200001cc:	200003d5 	.word	0x200003d5
200001d0:	200003d7 	.word	0x200003d7
200001d4:	200003d9 	.word	0x200003d9
200001d8:	200003db 	.word	0x200003db
200001dc:	200003dd 	.word	0x200003dd
200001e0:	200003df 	.word	0x200003df
200001e4:	200003e1 	.word	0x200003e1
200001e8:	200003e3 	.word	0x200003e3
200001ec:	200003e5 	.word	0x200003e5
200001f0:	200003e7 	.word	0x200003e7
200001f4:	200003e9 	.word	0x200003e9
200001f8:	200003eb 	.word	0x200003eb
200001fc:	200003ed 	.word	0x200003ed
20000200:	200003ef 	.word	0x200003ef
20000204:	200003f1 	.word	0x200003f1
20000208:	200003f3 	.word	0x200003f3
2000020c:	200003f5 	.word	0x200003f5
20000210:	200003f7 	.word	0x200003f7
20000214:	200003f9 	.word	0x200003f9
20000218:	200003fb 	.word	0x200003fb
2000021c:	200003fd 	.word	0x200003fd
20000220:	200003ff 	.word	0x200003ff
20000224:	20000401 	.word	0x20000401
20000228:	20000403 	.word	0x20000403
2000022c:	20000405 	.word	0x20000405
20000230:	20000407 	.word	0x20000407
20000234:	20000409 	.word	0x20000409
20000238:	2000040b 	.word	0x2000040b
2000023c:	2000040d 	.word	0x2000040d
20000240:	2000040f 	.word	0x2000040f
20000244:	20000411 	.word	0x20000411
20000248:	20000413 	.word	0x20000413
2000024c:	20000415 	.word	0x20000415
20000250:	20000417 	.word	0x20000417
20000254:	20000419 	.word	0x20000419
20000258:	2000041b 	.word	0x2000041b
2000025c:	2000041d 	.word	0x2000041d
20000260:	2000041f 	.word	0x2000041f
20000264:	20000421 	.word	0x20000421
20000268:	20000423 	.word	0x20000423
2000026c:	20000425 	.word	0x20000425
20000270:	20000427 	.word	0x20000427
20000274:	20000429 	.word	0x20000429
20000278:	2000042b 	.word	0x2000042b
2000027c:	2000042d 	.word	0x2000042d
20000280:	2000042f 	.word	0x2000042f
20000284:	20000431 	.word	0x20000431
20000288:	20000433 	.word	0x20000433
2000028c:	20000435 	.word	0x20000435
20000290:	20000437 	.word	0x20000437
20000294:	20000439 	.word	0x20000439

20000298 <Reset_Handler>:
20000298:	4868      	ldr	r0, [pc, #416]	; (2000043c <ACE_PPE_Flag31_IRQHandler+0x4>)
2000029a:	4780      	blx	r0
2000029c:	4868      	ldr	r0, [pc, #416]	; (20000440 <ACE_PPE_Flag31_IRQHandler+0x8>)
2000029e:	2800      	cmp	r0, #0
200002a0:	d10b      	bne.n	200002ba <copy_data>
200002a2:	4868      	ldr	r0, [pc, #416]	; (20000444 <ACE_PPE_Flag31_IRQHandler+0xc>)
200002a4:	4968      	ldr	r1, [pc, #416]	; (20000448 <ACE_PPE_Flag31_IRQHandler+0x10>)
200002a6:	4a69      	ldr	r2, [pc, #420]	; (2000044c <ACE_PPE_Flag31_IRQHandler+0x14>)
200002a8:	4288      	cmp	r0, r1
200002aa:	d006      	beq.n	200002ba <copy_data>

200002ac <copy_code_loop>:
200002ac:	4291      	cmp	r1, r2
200002ae:	bf1c      	itt	ne
200002b0:	f850 3b04 	ldrne.w	r3, [r0], #4
200002b4:	f841 3b04 	strne.w	r3, [r1], #4
200002b8:	d1f8      	bne.n	200002ac <copy_code_loop>

200002ba <copy_data>:
200002ba:	4865      	ldr	r0, [pc, #404]	; (20000450 <ACE_PPE_Flag31_IRQHandler+0x18>)
200002bc:	4965      	ldr	r1, [pc, #404]	; (20000454 <ACE_PPE_Flag31_IRQHandler+0x1c>)
200002be:	4a66      	ldr	r2, [pc, #408]	; (20000458 <ACE_PPE_Flag31_IRQHandler+0x20>)
200002c0:	4288      	cmp	r0, r1
200002c2:	d006      	beq.n	200002d2 <clear_bss>

200002c4 <copy_data_loop>:
200002c4:	4291      	cmp	r1, r2
200002c6:	bf1c      	itt	ne
200002c8:	f850 3b04 	ldrne.w	r3, [r0], #4
200002cc:	f841 3b04 	strne.w	r3, [r1], #4
200002d0:	d1f8      	bne.n	200002c4 <copy_data_loop>

200002d2 <clear_bss>:
200002d2:	4862      	ldr	r0, [pc, #392]	; (2000045c <ACE_PPE_Flag31_IRQHandler+0x24>)
200002d4:	4962      	ldr	r1, [pc, #392]	; (20000460 <ACE_PPE_Flag31_IRQHandler+0x28>)
200002d6:	4a63      	ldr	r2, [pc, #396]	; (20000464 <ACE_PPE_Flag31_IRQHandler+0x2c>)

200002d8 <clear_bss_loop>:
200002d8:	4291      	cmp	r1, r2
200002da:	bf18      	it	ne
200002dc:	f841 0b04 	strne.w	r0, [r1], #4
200002e0:	d1fa      	bne.n	200002d8 <clear_bss_loop>
	...

200002f0 <call_glob_ctor>:
200002f0:	f8df 0174 	ldr.w	r0, [pc, #372]	; 20000468 <ACE_PPE_Flag31_IRQHandler+0x30>
200002f4:	f20f 0e03 	addw	lr, pc, #3
200002f8:	4700      	bx	r0

200002fa <branch_to_main>:
200002fa:	f04f 0000 	mov.w	r0, #0
200002fe:	f04f 0100 	mov.w	r1, #0
20000302:	f8df f168 	ldr.w	pc, [pc, #360]	; 2000046c <ACE_PPE_Flag31_IRQHandler+0x34>

20000306 <ExitLoop>:
20000306:	e7fe      	b.n	20000306 <ExitLoop>

20000308 <NMI_Handler>:
20000308:	e7fe      	b.n	20000308 <NMI_Handler>

2000030a <HardFault_Handler>:
2000030a:	e7fe      	b.n	2000030a <HardFault_Handler>

2000030c <MemManage_Handler>:
2000030c:	e7fe      	b.n	2000030c <MemManage_Handler>

2000030e <BusFault_Handler>:
2000030e:	e7fe      	b.n	2000030e <BusFault_Handler>

20000310 <UsageFault_Handler>:
20000310:	e7fe      	b.n	20000310 <UsageFault_Handler>

20000312 <SVC_Handler>:
20000312:	e7fe      	b.n	20000312 <SVC_Handler>

20000314 <DebugMon_Handler>:
20000314:	e7fe      	b.n	20000314 <DebugMon_Handler>

20000316 <PendSV_Handler>:
20000316:	e7fe      	b.n	20000316 <PendSV_Handler>

20000318 <SysTick_Handler>:
20000318:	e7fe      	b.n	20000318 <SysTick_Handler>

2000031a <WdogWakeup_IRQHandler>:
2000031a:	e7fe      	b.n	2000031a <WdogWakeup_IRQHandler>

2000031c <BrownOut_1_5V_IRQHandler>:
2000031c:	e7fe      	b.n	2000031c <BrownOut_1_5V_IRQHandler>

2000031e <BrownOut_3_3V_IRQHandler>:
2000031e:	e7fe      	b.n	2000031e <BrownOut_3_3V_IRQHandler>

20000320 <RTC_Match_IRQHandler>:
20000320:	e7fe      	b.n	20000320 <RTC_Match_IRQHandler>

20000322 <RTCIF_Pub_IRQHandler>:
20000322:	e7fe      	b.n	20000322 <RTCIF_Pub_IRQHandler>

20000324 <EthernetMAC_IRQHandler>:
20000324:	e7fe      	b.n	20000324 <EthernetMAC_IRQHandler>

20000326 <IAP_IRQHandler>:
20000326:	e7fe      	b.n	20000326 <IAP_IRQHandler>

20000328 <ENVM0_IRQHandler>:
20000328:	e7fe      	b.n	20000328 <ENVM0_IRQHandler>

2000032a <ENVM1_IRQHandler>:
2000032a:	e7fe      	b.n	2000032a <ENVM1_IRQHandler>

2000032c <DMA_IRQHandler>:
2000032c:	e7fe      	b.n	2000032c <DMA_IRQHandler>

2000032e <UART0_IRQHandler>:
2000032e:	e7fe      	b.n	2000032e <UART0_IRQHandler>

20000330 <UART1_IRQHandler>:
20000330:	e7fe      	b.n	20000330 <UART1_IRQHandler>

20000332 <SPI0_IRQHandler>:
20000332:	e7fe      	b.n	20000332 <SPI0_IRQHandler>

20000334 <SPI1_IRQHandler>:
20000334:	e7fe      	b.n	20000334 <SPI1_IRQHandler>
20000336:	e7fe      	b.n	20000336 <SPI1_IRQHandler+0x2>

20000338 <I2C0_SMBAlert_IRQHandler>:
20000338:	e7fe      	b.n	20000338 <I2C0_SMBAlert_IRQHandler>

2000033a <I2C0_SMBus_IRQHandler>:
2000033a:	e7fe      	b.n	2000033a <I2C0_SMBus_IRQHandler>
2000033c:	e7fe      	b.n	2000033c <I2C0_SMBus_IRQHandler+0x2>

2000033e <I2C1_SMBAlert_IRQHandler>:
2000033e:	e7fe      	b.n	2000033e <I2C1_SMBAlert_IRQHandler>

20000340 <I2C1_SMBus_IRQHandler>:
20000340:	e7fe      	b.n	20000340 <I2C1_SMBus_IRQHandler>

20000342 <Timer1_IRQHandler>:
20000342:	e7fe      	b.n	20000342 <Timer1_IRQHandler>

20000344 <Timer2_IRQHandler>:
20000344:	e7fe      	b.n	20000344 <Timer2_IRQHandler>

20000346 <PLL_Lock_IRQHandler>:
20000346:	e7fe      	b.n	20000346 <PLL_Lock_IRQHandler>

20000348 <PLL_LockLost_IRQHandler>:
20000348:	e7fe      	b.n	20000348 <PLL_LockLost_IRQHandler>

2000034a <CommError_IRQHandler>:
2000034a:	e7fe      	b.n	2000034a <CommError_IRQHandler>

2000034c <Fabric_IRQHandler>:
2000034c:	e7fe      	b.n	2000034c <Fabric_IRQHandler>

2000034e <GPIO0_IRQHandler>:
2000034e:	e7fe      	b.n	2000034e <GPIO0_IRQHandler>

20000350 <GPIO1_IRQHandler>:
20000350:	e7fe      	b.n	20000350 <GPIO1_IRQHandler>

20000352 <GPIO2_IRQHandler>:
20000352:	e7fe      	b.n	20000352 <GPIO2_IRQHandler>

20000354 <GPIO3_IRQHandler>:
20000354:	e7fe      	b.n	20000354 <GPIO3_IRQHandler>

20000356 <GPIO4_IRQHandler>:
20000356:	e7fe      	b.n	20000356 <GPIO4_IRQHandler>

20000358 <GPIO5_IRQHandler>:
20000358:	e7fe      	b.n	20000358 <GPIO5_IRQHandler>

2000035a <GPIO6_IRQHandler>:
2000035a:	e7fe      	b.n	2000035a <GPIO6_IRQHandler>

2000035c <GPIO7_IRQHandler>:
2000035c:	e7fe      	b.n	2000035c <GPIO7_IRQHandler>

2000035e <GPIO8_IRQHandler>:
2000035e:	e7fe      	b.n	2000035e <GPIO8_IRQHandler>

20000360 <GPIO9_IRQHandler>:
20000360:	e7fe      	b.n	20000360 <GPIO9_IRQHandler>

20000362 <GPIO10_IRQHandler>:
20000362:	e7fe      	b.n	20000362 <GPIO10_IRQHandler>

20000364 <GPIO11_IRQHandler>:
20000364:	e7fe      	b.n	20000364 <GPIO11_IRQHandler>

20000366 <GPIO12_IRQHandler>:
20000366:	e7fe      	b.n	20000366 <GPIO12_IRQHandler>

20000368 <GPIO13_IRQHandler>:
20000368:	e7fe      	b.n	20000368 <GPIO13_IRQHandler>

2000036a <GPIO14_IRQHandler>:
2000036a:	e7fe      	b.n	2000036a <GPIO14_IRQHandler>

2000036c <GPIO15_IRQHandler>:
2000036c:	e7fe      	b.n	2000036c <GPIO15_IRQHandler>

2000036e <GPIO16_IRQHandler>:
2000036e:	e7fe      	b.n	2000036e <GPIO16_IRQHandler>

20000370 <GPIO17_IRQHandler>:
20000370:	e7fe      	b.n	20000370 <GPIO17_IRQHandler>

20000372 <GPIO18_IRQHandler>:
20000372:	e7fe      	b.n	20000372 <GPIO18_IRQHandler>

20000374 <GPIO19_IRQHandler>:
20000374:	e7fe      	b.n	20000374 <GPIO19_IRQHandler>

20000376 <GPIO20_IRQHandler>:
20000376:	e7fe      	b.n	20000376 <GPIO20_IRQHandler>

20000378 <GPIO21_IRQHandler>:
20000378:	e7fe      	b.n	20000378 <GPIO21_IRQHandler>

2000037a <GPIO22_IRQHandler>:
2000037a:	e7fe      	b.n	2000037a <GPIO22_IRQHandler>

2000037c <GPIO23_IRQHandler>:
2000037c:	e7fe      	b.n	2000037c <GPIO23_IRQHandler>

2000037e <GPIO24_IRQHandler>:
2000037e:	e7fe      	b.n	2000037e <GPIO24_IRQHandler>

20000380 <GPIO25_IRQHandler>:
20000380:	e7fe      	b.n	20000380 <GPIO25_IRQHandler>

20000382 <GPIO26_IRQHandler>:
20000382:	e7fe      	b.n	20000382 <GPIO26_IRQHandler>

20000384 <GPIO27_IRQHandler>:
20000384:	e7fe      	b.n	20000384 <GPIO27_IRQHandler>

20000386 <GPIO28_IRQHandler>:
20000386:	e7fe      	b.n	20000386 <GPIO28_IRQHandler>

20000388 <GPIO29_IRQHandler>:
20000388:	e7fe      	b.n	20000388 <GPIO29_IRQHandler>

2000038a <GPIO30_IRQHandler>:
2000038a:	e7fe      	b.n	2000038a <GPIO30_IRQHandler>

2000038c <GPIO31_IRQHandler>:
2000038c:	e7fe      	b.n	2000038c <GPIO31_IRQHandler>

2000038e <ACE_PC0_Flag0_IRQHandler>:
2000038e:	e7fe      	b.n	2000038e <ACE_PC0_Flag0_IRQHandler>

20000390 <ACE_PC0_Flag1_IRQHandler>:
20000390:	e7fe      	b.n	20000390 <ACE_PC0_Flag1_IRQHandler>

20000392 <ACE_PC0_Flag2_IRQHandler>:
20000392:	e7fe      	b.n	20000392 <ACE_PC0_Flag2_IRQHandler>

20000394 <ACE_PC0_Flag3_IRQHandler>:
20000394:	e7fe      	b.n	20000394 <ACE_PC0_Flag3_IRQHandler>

20000396 <ACE_PC1_Flag0_IRQHandler>:
20000396:	e7fe      	b.n	20000396 <ACE_PC1_Flag0_IRQHandler>

20000398 <ACE_PC1_Flag1_IRQHandler>:
20000398:	e7fe      	b.n	20000398 <ACE_PC1_Flag1_IRQHandler>

2000039a <ACE_PC1_Flag2_IRQHandler>:
2000039a:	e7fe      	b.n	2000039a <ACE_PC1_Flag2_IRQHandler>

2000039c <ACE_PC1_Flag3_IRQHandler>:
2000039c:	e7fe      	b.n	2000039c <ACE_PC1_Flag3_IRQHandler>

2000039e <ACE_PC2_Flag0_IRQHandler>:
2000039e:	e7fe      	b.n	2000039e <ACE_PC2_Flag0_IRQHandler>

200003a0 <ACE_PC2_Flag1_IRQHandler>:
200003a0:	e7fe      	b.n	200003a0 <ACE_PC2_Flag1_IRQHandler>

200003a2 <ACE_PC2_Flag2_IRQHandler>:
200003a2:	e7fe      	b.n	200003a2 <ACE_PC2_Flag2_IRQHandler>

200003a4 <ACE_PC2_Flag3_IRQHandler>:
200003a4:	e7fe      	b.n	200003a4 <ACE_PC2_Flag3_IRQHandler>

200003a6 <ACE_ADC0_DataValid_IRQHandler>:
200003a6:	e7fe      	b.n	200003a6 <ACE_ADC0_DataValid_IRQHandler>

200003a8 <ACE_ADC1_DataValid_IRQHandler>:
200003a8:	e7fe      	b.n	200003a8 <ACE_ADC1_DataValid_IRQHandler>

200003aa <ACE_ADC2_DataValid_IRQHandler>:
200003aa:	e7fe      	b.n	200003aa <ACE_ADC2_DataValid_IRQHandler>

200003ac <ACE_ADC0_CalDone_IRQHandler>:
200003ac:	e7fe      	b.n	200003ac <ACE_ADC0_CalDone_IRQHandler>

200003ae <ACE_ADC1_CalDone_IRQHandler>:
200003ae:	e7fe      	b.n	200003ae <ACE_ADC1_CalDone_IRQHandler>

200003b0 <ACE_ADC2_CalDone_IRQHandler>:
200003b0:	e7fe      	b.n	200003b0 <ACE_ADC2_CalDone_IRQHandler>

200003b2 <ACE_ADC0_CalStart_IRQHandler>:
200003b2:	e7fe      	b.n	200003b2 <ACE_ADC0_CalStart_IRQHandler>

200003b4 <ACE_ADC1_CalStart_IRQHandler>:
200003b4:	e7fe      	b.n	200003b4 <ACE_ADC1_CalStart_IRQHandler>

200003b6 <ACE_ADC2_CalStart_IRQHandler>:
200003b6:	e7fe      	b.n	200003b6 <ACE_ADC2_CalStart_IRQHandler>

200003b8 <ACE_Comp0_Fall_IRQHandler>:
200003b8:	e7fe      	b.n	200003b8 <ACE_Comp0_Fall_IRQHandler>

200003ba <ACE_Comp1_Fall_IRQHandler>:
200003ba:	e7fe      	b.n	200003ba <ACE_Comp1_Fall_IRQHandler>

200003bc <ACE_Comp2_Fall_IRQHandler>:
200003bc:	e7fe      	b.n	200003bc <ACE_Comp2_Fall_IRQHandler>

200003be <ACE_Comp3_Fall_IRQHandler>:
200003be:	e7fe      	b.n	200003be <ACE_Comp3_Fall_IRQHandler>

200003c0 <ACE_Comp4_Fall_IRQHandler>:
200003c0:	e7fe      	b.n	200003c0 <ACE_Comp4_Fall_IRQHandler>

200003c2 <ACE_Comp5_Fall_IRQHandler>:
200003c2:	e7fe      	b.n	200003c2 <ACE_Comp5_Fall_IRQHandler>

200003c4 <ACE_Comp6_Fall_IRQHandler>:
200003c4:	e7fe      	b.n	200003c4 <ACE_Comp6_Fall_IRQHandler>

200003c6 <ACE_Comp7_Fall_IRQHandler>:
200003c6:	e7fe      	b.n	200003c6 <ACE_Comp7_Fall_IRQHandler>

200003c8 <ACE_Comp8_Fall_IRQHandler>:
200003c8:	e7fe      	b.n	200003c8 <ACE_Comp8_Fall_IRQHandler>

200003ca <ACE_Comp9_Fall_IRQHandler>:
200003ca:	e7fe      	b.n	200003ca <ACE_Comp9_Fall_IRQHandler>

200003cc <ACE_Comp10_Fall_IRQHandler>:
200003cc:	e7fe      	b.n	200003cc <ACE_Comp10_Fall_IRQHandler>

200003ce <ACE_Comp11_Fall_IRQHandler>:
200003ce:	e7fe      	b.n	200003ce <ACE_Comp11_Fall_IRQHandler>

200003d0 <ACE_Comp0_Rise_IRQHandler>:
200003d0:	e7fe      	b.n	200003d0 <ACE_Comp0_Rise_IRQHandler>

200003d2 <ACE_Comp1_Rise_IRQHandler>:
200003d2:	e7fe      	b.n	200003d2 <ACE_Comp1_Rise_IRQHandler>

200003d4 <ACE_Comp2_Rise_IRQHandler>:
200003d4:	e7fe      	b.n	200003d4 <ACE_Comp2_Rise_IRQHandler>

200003d6 <ACE_Comp3_Rise_IRQHandler>:
200003d6:	e7fe      	b.n	200003d6 <ACE_Comp3_Rise_IRQHandler>

200003d8 <ACE_Comp4_Rise_IRQHandler>:
200003d8:	e7fe      	b.n	200003d8 <ACE_Comp4_Rise_IRQHandler>

200003da <ACE_Comp5_Rise_IRQHandler>:
200003da:	e7fe      	b.n	200003da <ACE_Comp5_Rise_IRQHandler>

200003dc <ACE_Comp6_Rise_IRQHandler>:
200003dc:	e7fe      	b.n	200003dc <ACE_Comp6_Rise_IRQHandler>

200003de <ACE_Comp7_Rise_IRQHandler>:
200003de:	e7fe      	b.n	200003de <ACE_Comp7_Rise_IRQHandler>

200003e0 <ACE_Comp8_Rise_IRQHandler>:
200003e0:	e7fe      	b.n	200003e0 <ACE_Comp8_Rise_IRQHandler>

200003e2 <ACE_Comp9_Rise_IRQHandler>:
200003e2:	e7fe      	b.n	200003e2 <ACE_Comp9_Rise_IRQHandler>

200003e4 <ACE_Comp10_Rise_IRQHandler>:
200003e4:	e7fe      	b.n	200003e4 <ACE_Comp10_Rise_IRQHandler>

200003e6 <ACE_Comp11_Rise_IRQHandler>:
200003e6:	e7fe      	b.n	200003e6 <ACE_Comp11_Rise_IRQHandler>

200003e8 <ACE_ADC0_FifoFull_IRQHandler>:
200003e8:	e7fe      	b.n	200003e8 <ACE_ADC0_FifoFull_IRQHandler>

200003ea <ACE_ADC0_FifoAFull_IRQHandler>:
200003ea:	e7fe      	b.n	200003ea <ACE_ADC0_FifoAFull_IRQHandler>

200003ec <ACE_ADC0_FifoEmpty_IRQHandler>:
200003ec:	e7fe      	b.n	200003ec <ACE_ADC0_FifoEmpty_IRQHandler>

200003ee <ACE_ADC1_FifoFull_IRQHandler>:
200003ee:	e7fe      	b.n	200003ee <ACE_ADC1_FifoFull_IRQHandler>

200003f0 <ACE_ADC1_FifoAFull_IRQHandler>:
200003f0:	e7fe      	b.n	200003f0 <ACE_ADC1_FifoAFull_IRQHandler>

200003f2 <ACE_ADC1_FifoEmpty_IRQHandler>:
200003f2:	e7fe      	b.n	200003f2 <ACE_ADC1_FifoEmpty_IRQHandler>

200003f4 <ACE_ADC2_FifoFull_IRQHandler>:
200003f4:	e7fe      	b.n	200003f4 <ACE_ADC2_FifoFull_IRQHandler>

200003f6 <ACE_ADC2_FifoAFull_IRQHandler>:
200003f6:	e7fe      	b.n	200003f6 <ACE_ADC2_FifoAFull_IRQHandler>

200003f8 <ACE_ADC2_FifoEmpty_IRQHandler>:
200003f8:	e7fe      	b.n	200003f8 <ACE_ADC2_FifoEmpty_IRQHandler>

200003fa <ACE_PPE_Flag0_IRQHandler>:
200003fa:	e7fe      	b.n	200003fa <ACE_PPE_Flag0_IRQHandler>

200003fc <ACE_PPE_Flag1_IRQHandler>:
200003fc:	e7fe      	b.n	200003fc <ACE_PPE_Flag1_IRQHandler>

200003fe <ACE_PPE_Flag2_IRQHandler>:
200003fe:	e7fe      	b.n	200003fe <ACE_PPE_Flag2_IRQHandler>

20000400 <ACE_PPE_Flag3_IRQHandler>:
20000400:	e7fe      	b.n	20000400 <ACE_PPE_Flag3_IRQHandler>

20000402 <ACE_PPE_Flag4_IRQHandler>:
20000402:	e7fe      	b.n	20000402 <ACE_PPE_Flag4_IRQHandler>

20000404 <ACE_PPE_Flag5_IRQHandler>:
20000404:	e7fe      	b.n	20000404 <ACE_PPE_Flag5_IRQHandler>

20000406 <ACE_PPE_Flag6_IRQHandler>:
20000406:	e7fe      	b.n	20000406 <ACE_PPE_Flag6_IRQHandler>

20000408 <ACE_PPE_Flag7_IRQHandler>:
20000408:	e7fe      	b.n	20000408 <ACE_PPE_Flag7_IRQHandler>

2000040a <ACE_PPE_Flag8_IRQHandler>:
2000040a:	e7fe      	b.n	2000040a <ACE_PPE_Flag8_IRQHandler>

2000040c <ACE_PPE_Flag9_IRQHandler>:
2000040c:	e7fe      	b.n	2000040c <ACE_PPE_Flag9_IRQHandler>

2000040e <ACE_PPE_Flag10_IRQHandler>:
2000040e:	e7fe      	b.n	2000040e <ACE_PPE_Flag10_IRQHandler>

20000410 <ACE_PPE_Flag11_IRQHandler>:
20000410:	e7fe      	b.n	20000410 <ACE_PPE_Flag11_IRQHandler>

20000412 <ACE_PPE_Flag12_IRQHandler>:
20000412:	e7fe      	b.n	20000412 <ACE_PPE_Flag12_IRQHandler>

20000414 <ACE_PPE_Flag13_IRQHandler>:
20000414:	e7fe      	b.n	20000414 <ACE_PPE_Flag13_IRQHandler>

20000416 <ACE_PPE_Flag14_IRQHandler>:
20000416:	e7fe      	b.n	20000416 <ACE_PPE_Flag14_IRQHandler>

20000418 <ACE_PPE_Flag15_IRQHandler>:
20000418:	e7fe      	b.n	20000418 <ACE_PPE_Flag15_IRQHandler>

2000041a <ACE_PPE_Flag16_IRQHandler>:
2000041a:	e7fe      	b.n	2000041a <ACE_PPE_Flag16_IRQHandler>

2000041c <ACE_PPE_Flag17_IRQHandler>:
2000041c:	e7fe      	b.n	2000041c <ACE_PPE_Flag17_IRQHandler>

2000041e <ACE_PPE_Flag18_IRQHandler>:
2000041e:	e7fe      	b.n	2000041e <ACE_PPE_Flag18_IRQHandler>

20000420 <ACE_PPE_Flag19_IRQHandler>:
20000420:	e7fe      	b.n	20000420 <ACE_PPE_Flag19_IRQHandler>

20000422 <ACE_PPE_Flag20_IRQHandler>:
20000422:	e7fe      	b.n	20000422 <ACE_PPE_Flag20_IRQHandler>

20000424 <ACE_PPE_Flag21_IRQHandler>:
20000424:	e7fe      	b.n	20000424 <ACE_PPE_Flag21_IRQHandler>

20000426 <ACE_PPE_Flag22_IRQHandler>:
20000426:	e7fe      	b.n	20000426 <ACE_PPE_Flag22_IRQHandler>

20000428 <ACE_PPE_Flag23_IRQHandler>:
20000428:	e7fe      	b.n	20000428 <ACE_PPE_Flag23_IRQHandler>

2000042a <ACE_PPE_Flag24_IRQHandler>:
2000042a:	e7fe      	b.n	2000042a <ACE_PPE_Flag24_IRQHandler>

2000042c <ACE_PPE_Flag25_IRQHandler>:
2000042c:	e7fe      	b.n	2000042c <ACE_PPE_Flag25_IRQHandler>

2000042e <ACE_PPE_Flag26_IRQHandler>:
2000042e:	e7fe      	b.n	2000042e <ACE_PPE_Flag26_IRQHandler>

20000430 <ACE_PPE_Flag27_IRQHandler>:
20000430:	e7fe      	b.n	20000430 <ACE_PPE_Flag27_IRQHandler>

20000432 <ACE_PPE_Flag28_IRQHandler>:
20000432:	e7fe      	b.n	20000432 <ACE_PPE_Flag28_IRQHandler>

20000434 <ACE_PPE_Flag29_IRQHandler>:
20000434:	e7fe      	b.n	20000434 <ACE_PPE_Flag29_IRQHandler>

20000436 <ACE_PPE_Flag30_IRQHandler>:
20000436:	e7fe      	b.n	20000436 <ACE_PPE_Flag30_IRQHandler>

20000438 <ACE_PPE_Flag31_IRQHandler>:
20000438:	e7fe      	b.n	20000438 <ACE_PPE_Flag31_IRQHandler>
2000043a:	0000      	.short	0x0000
2000043c:	20001419 	.word	0x20001419
20000440:	00000000 	.word	0x00000000
20000444:	20000000 	.word	0x20000000
20000448:	20000000 	.word	0x20000000
2000044c:	20001568 	.word	0x20001568
20000450:	20001568 	.word	0x20001568
20000454:	20001568 	.word	0x20001568
20000458:	2000156c 	.word	0x2000156c
2000045c:	00000000 	.word	0x00000000
20000460:	2000156c 	.word	0x2000156c
20000464:	20001658 	.word	0x20001658
20000468:	20001425 	.word	0x20001425
2000046c:	20000689 	.word	0x20000689

20000470 <__do_global_dtors_aux>:
20000470:	f241 536c 	movw	r3, #5484	; 0x156c
20000474:	f2c2 0300 	movt	r3, #8192	; 0x2000
20000478:	781a      	ldrb	r2, [r3, #0]
2000047a:	b90a      	cbnz	r2, 20000480 <__do_global_dtors_aux+0x10>
2000047c:	2001      	movs	r0, #1
2000047e:	7018      	strb	r0, [r3, #0]
20000480:	4770      	bx	lr
20000482:	bf00      	nop

20000484 <frame_dummy>:
20000484:	f241 5068 	movw	r0, #5480	; 0x1568
20000488:	f2c2 0000 	movt	r0, #8192	; 0x2000
2000048c:	b508      	push	{r3, lr}
2000048e:	6803      	ldr	r3, [r0, #0]
20000490:	b12b      	cbz	r3, 2000049e <frame_dummy+0x1a>
20000492:	f240 0300 	movw	r3, #0
20000496:	f2c0 0300 	movt	r3, #0
2000049a:	b103      	cbz	r3, 2000049e <frame_dummy+0x1a>
2000049c:	4798      	blx	r3
2000049e:	bd08      	pop	{r3, pc}

200004a0 <readRegister8>:
//
//
//    printf("d", status);
//}

uint8_t readRegister8(uint8_t reg){
200004a0:	b580      	push	{r7, lr}
200004a2:	b086      	sub	sp, #24
200004a4:	af02      	add	r7, sp, #8
200004a6:	4603      	mov	r3, r0
200004a8:	71fb      	strb	r3, [r7, #7]
	MSS_I2C_write( &g_mss_i2c0, DRV2605_ADDR, &reg, 1,
200004aa:	f107 0307 	add.w	r3, r7, #7
200004ae:	f04f 0200 	mov.w	r2, #0
200004b2:	9200      	str	r2, [sp, #0]
200004b4:	f241 5070 	movw	r0, #5488	; 0x1570
200004b8:	f2c2 0000 	movt	r0, #8192	; 0x2000
200004bc:	f04f 015a 	mov.w	r1, #90	; 0x5a
200004c0:	461a      	mov	r2, r3
200004c2:	f04f 0301 	mov.w	r3, #1
200004c6:	f000 fa13 	bl	200008f0 <MSS_I2C_write>
	                      MSS_I2C_RELEASE_BUS );
	MSS_I2C_wait_complete( &g_mss_i2c0, MSS_I2C_NO_TIMEOUT );
200004ca:	f241 5070 	movw	r0, #5488	; 0x1570
200004ce:	f2c2 0000 	movt	r0, #8192	; 0x2000
200004d2:	f04f 0100 	mov.w	r1, #0
200004d6:	f000 fa85 	bl	200009e4 <MSS_I2C_wait_complete>
	uint8_t * ret = 0;
200004da:	f04f 0300 	mov.w	r3, #0
200004de:	60fb      	str	r3, [r7, #12]
	MSS_I2C_write( &g_mss_i2c0, DRV2605_ADDR, ret, 1,
200004e0:	f04f 0300 	mov.w	r3, #0
200004e4:	9300      	str	r3, [sp, #0]
200004e6:	f241 5070 	movw	r0, #5488	; 0x1570
200004ea:	f2c2 0000 	movt	r0, #8192	; 0x2000
200004ee:	f04f 015a 	mov.w	r1, #90	; 0x5a
200004f2:	68fa      	ldr	r2, [r7, #12]
200004f4:	f04f 0301 	mov.w	r3, #1
200004f8:	f000 f9fa 	bl	200008f0 <MSS_I2C_write>
		                      MSS_I2C_RELEASE_BUS );
	return *ret;
200004fc:	68fb      	ldr	r3, [r7, #12]
200004fe:	781b      	ldrb	r3, [r3, #0]
}
20000500:	4618      	mov	r0, r3
20000502:	f107 0710 	add.w	r7, r7, #16
20000506:	46bd      	mov	sp, r7
20000508:	bd80      	pop	{r7, pc}
2000050a:	bf00      	nop

2000050c <writeRegister8>:


void writeRegister8(uint8_t reg, uint8_t val){
2000050c:	b580      	push	{r7, lr}
2000050e:	b086      	sub	sp, #24
20000510:	af02      	add	r7, sp, #8
20000512:	4602      	mov	r2, r0
20000514:	460b      	mov	r3, r1
20000516:	71fa      	strb	r2, [r7, #7]
20000518:	71bb      	strb	r3, [r7, #6]
	uint8_t status;
	uint8_t buffer[2] = {reg, val};
2000051a:	79fb      	ldrb	r3, [r7, #7]
2000051c:	733b      	strb	r3, [r7, #12]
2000051e:	79bb      	ldrb	r3, [r7, #6]
20000520:	737b      	strb	r3, [r7, #13]
	MSS_I2C_write( &g_mss_i2c0, DRV2605_ADDR, buffer, 2, MSS_I2C_RELEASE_BUS );
20000522:	f107 030c 	add.w	r3, r7, #12
20000526:	f04f 0200 	mov.w	r2, #0
2000052a:	9200      	str	r2, [sp, #0]
2000052c:	f241 5070 	movw	r0, #5488	; 0x1570
20000530:	f2c2 0000 	movt	r0, #8192	; 0x2000
20000534:	f04f 015a 	mov.w	r1, #90	; 0x5a
20000538:	461a      	mov	r2, r3
2000053a:	f04f 0302 	mov.w	r3, #2
2000053e:	f000 f9d7 	bl	200008f0 <MSS_I2C_write>
	status = MSS_I2C_wait_complete( &g_mss_i2c0, MSS_I2C_NO_TIMEOUT );
20000542:	f241 5070 	movw	r0, #5488	; 0x1570
20000546:	f2c2 0000 	movt	r0, #8192	; 0x2000
2000054a:	f04f 0100 	mov.w	r1, #0
2000054e:	f000 fa49 	bl	200009e4 <MSS_I2C_wait_complete>
20000552:	4603      	mov	r3, r0
20000554:	73fb      	strb	r3, [r7, #15]
}
20000556:	f107 0710 	add.w	r7, r7, #16
2000055a:	46bd      	mov	sp, r7
2000055c:	bd80      	pop	{r7, pc}
2000055e:	bf00      	nop

20000560 <init>:

int init() {
20000560:	b580      	push	{r7, lr}
20000562:	af00      	add	r7, sp, #0
  //uint8_t id = readRegister8(DRV2605_REG_STATUS);
  //Serial.print("Status 0x"); Serial.println(id, HEX);

  writeRegister8(DRV2605_REG_MODE, 0x00); // out of standby
20000564:	f04f 0001 	mov.w	r0, #1
20000568:	f04f 0100 	mov.w	r1, #0
2000056c:	f7ff ffce 	bl	2000050c <writeRegister8>

  writeRegister8(DRV2605_REG_RTPIN, 0x00); // no real-time-playback
20000570:	f04f 0002 	mov.w	r0, #2
20000574:	f04f 0100 	mov.w	r1, #0
20000578:	f7ff ffc8 	bl	2000050c <writeRegister8>

  writeRegister8(DRV2605_REG_WAVESEQ1, 1); // strong click
2000057c:	f04f 0004 	mov.w	r0, #4
20000580:	f04f 0101 	mov.w	r1, #1
20000584:	f7ff ffc2 	bl	2000050c <writeRegister8>
  writeRegister8(DRV2605_REG_WAVESEQ2, 0); // end sequence
20000588:	f04f 0005 	mov.w	r0, #5
2000058c:	f04f 0100 	mov.w	r1, #0
20000590:	f7ff ffbc 	bl	2000050c <writeRegister8>

  writeRegister8(DRV2605_REG_OVERDRIVE, 0); // no overdrive
20000594:	f04f 000d 	mov.w	r0, #13
20000598:	f04f 0100 	mov.w	r1, #0
2000059c:	f7ff ffb6 	bl	2000050c <writeRegister8>

  writeRegister8(DRV2605_REG_SUSTAINPOS, 0);
200005a0:	f04f 000e 	mov.w	r0, #14
200005a4:	f04f 0100 	mov.w	r1, #0
200005a8:	f7ff ffb0 	bl	2000050c <writeRegister8>
  writeRegister8(DRV2605_REG_SUSTAINNEG, 0);
200005ac:	f04f 000f 	mov.w	r0, #15
200005b0:	f04f 0100 	mov.w	r1, #0
200005b4:	f7ff ffaa 	bl	2000050c <writeRegister8>
  writeRegister8(DRV2605_REG_BREAK, 0);
200005b8:	f04f 0010 	mov.w	r0, #16
200005bc:	f04f 0100 	mov.w	r1, #0
200005c0:	f7ff ffa4 	bl	2000050c <writeRegister8>
  writeRegister8(DRV2605_REG_AUDIOMAX, 0x64);
200005c4:	f04f 0013 	mov.w	r0, #19
200005c8:	f04f 0164 	mov.w	r1, #100	; 0x64
200005cc:	f7ff ff9e 	bl	2000050c <writeRegister8>

  // ERM open loop

  // turn off N_ERM_LRA
  writeRegister8(DRV2605_REG_FEEDBACK, readRegister8(DRV2605_REG_FEEDBACK) & 0x7F);
200005d0:	f04f 001a 	mov.w	r0, #26
200005d4:	f7ff ff64 	bl	200004a0 <readRegister8>
200005d8:	4603      	mov	r3, r0
200005da:	f003 037f 	and.w	r3, r3, #127	; 0x7f
200005de:	f04f 001a 	mov.w	r0, #26
200005e2:	4619      	mov	r1, r3
200005e4:	f7ff ff92 	bl	2000050c <writeRegister8>
  // turn on ERM_OPEN_LOOP
  writeRegister8(DRV2605_REG_CONTROL3, readRegister8(DRV2605_REG_CONTROL3) | 0x20);
200005e8:	f04f 001d 	mov.w	r0, #29
200005ec:	f7ff ff58 	bl	200004a0 <readRegister8>
200005f0:	4603      	mov	r3, r0
200005f2:	f043 0320 	orr.w	r3, r3, #32
200005f6:	b2db      	uxtb	r3, r3
200005f8:	f04f 001d 	mov.w	r0, #29
200005fc:	4619      	mov	r1, r3
200005fe:	f7ff ff85 	bl	2000050c <writeRegister8>

  return 1;
20000602:	f04f 0301 	mov.w	r3, #1
}
20000606:	4618      	mov	r0, r3
20000608:	bd80      	pop	{r7, pc}
2000060a:	bf00      	nop

2000060c <setWaveform>:

void setWaveform(uint8_t slot, uint8_t w) {
2000060c:	b580      	push	{r7, lr}
2000060e:	b082      	sub	sp, #8
20000610:	af00      	add	r7, sp, #0
20000612:	4602      	mov	r2, r0
20000614:	460b      	mov	r3, r1
20000616:	71fa      	strb	r2, [r7, #7]
20000618:	71bb      	strb	r3, [r7, #6]
  writeRegister8(DRV2605_REG_WAVESEQ1+slot, w);
2000061a:	79fb      	ldrb	r3, [r7, #7]
2000061c:	f103 0304 	add.w	r3, r3, #4
20000620:	b2da      	uxtb	r2, r3
20000622:	79bb      	ldrb	r3, [r7, #6]
20000624:	4610      	mov	r0, r2
20000626:	4619      	mov	r1, r3
20000628:	f7ff ff70 	bl	2000050c <writeRegister8>
}
2000062c:	f107 0708 	add.w	r7, r7, #8
20000630:	46bd      	mov	sp, r7
20000632:	bd80      	pop	{r7, pc}

20000634 <selectLibrary>:

void selectLibrary(uint8_t lib) {
20000634:	b580      	push	{r7, lr}
20000636:	b082      	sub	sp, #8
20000638:	af00      	add	r7, sp, #0
2000063a:	4603      	mov	r3, r0
2000063c:	71fb      	strb	r3, [r7, #7]
  writeRegister8(DRV2605_REG_LIBRARY, lib);
2000063e:	79fb      	ldrb	r3, [r7, #7]
20000640:	f04f 0003 	mov.w	r0, #3
20000644:	4619      	mov	r1, r3
20000646:	f7ff ff61 	bl	2000050c <writeRegister8>
}
2000064a:	f107 0708 	add.w	r7, r7, #8
2000064e:	46bd      	mov	sp, r7
20000650:	bd80      	pop	{r7, pc}
20000652:	bf00      	nop

20000654 <go>:
/**************************************************************************/
/*!
  @brief Start playback of the waveforms (start moving!).
*/
/**************************************************************************/
void go() {
20000654:	b580      	push	{r7, lr}
20000656:	af00      	add	r7, sp, #0
  writeRegister8(DRV2605_REG_GO, 1);
20000658:	f04f 000c 	mov.w	r0, #12
2000065c:	f04f 0101 	mov.w	r1, #1
20000660:	f7ff ff54 	bl	2000050c <writeRegister8>
}
20000664:	bd80      	pop	{r7, pc}
20000666:	bf00      	nop

20000668 <setMode>:
    5: Real-time playback\n
    6: Diagnostics\n
    7: Auto calibration
*/
/**************************************************************************/
void setMode(uint8_t mode) {
20000668:	b580      	push	{r7, lr}
2000066a:	b082      	sub	sp, #8
2000066c:	af00      	add	r7, sp, #0
2000066e:	4603      	mov	r3, r0
20000670:	71fb      	strb	r3, [r7, #7]
  writeRegister8(DRV2605_REG_MODE, mode);
20000672:	79fb      	ldrb	r3, [r7, #7]
20000674:	f04f 0001 	mov.w	r0, #1
20000678:	4619      	mov	r1, r3
2000067a:	f7ff ff47 	bl	2000050c <writeRegister8>
}
2000067e:	f107 0708 	add.w	r7, r7, #8
20000682:	46bd      	mov	sp, r7
20000684:	bd80      	pop	{r7, pc}
20000686:	bf00      	nop

20000688 <main>:
/**************************************************************************/
void useLRA () {
  writeRegister8(DRV2605_REG_FEEDBACK, readRegister8(DRV2605_REG_FEEDBACK) | 0x80);
}

int main(){
20000688:	b580      	push	{r7, lr}
2000068a:	af00      	add	r7, sp, #0
	// set the effect to play
	  MSS_I2C_init( &g_mss_i2c0, DRV2605_ADDR, MSS_I2C_PCLK_DIV_256 );
2000068c:	f241 5070 	movw	r0, #5488	; 0x1570
20000690:	f2c2 0000 	movt	r0, #8192	; 0x2000
20000694:	f04f 015a 	mov.w	r1, #90	; 0x5a
20000698:	f04f 0200 	mov.w	r2, #0
2000069c:	f000 f872 	bl	20000784 <MSS_I2C_init>

	  init();
200006a0:	f7ff ff5e 	bl	20000560 <init>

	  selectLibrary(1);
200006a4:	f04f 0001 	mov.w	r0, #1
200006a8:	f7ff ffc4 	bl	20000634 <selectLibrary>

	  // I2C trigger by sending 'go' command
	  // default, internal trigger when sending GO command
	  setMode(DRV2605_MODE_INTTRIG);
200006ac:	f04f 0000 	mov.w	r0, #0
200006b0:	f7ff ffda 	bl	20000668 <setMode>


	  setWaveform(0, 102);  // play effect
200006b4:	f04f 0000 	mov.w	r0, #0
200006b8:	f04f 0166 	mov.w	r1, #102	; 0x66
200006bc:	f7ff ffa6 	bl	2000060c <setWaveform>
	  setWaveform(1, 0);       // end waveform
200006c0:	f04f 0001 	mov.w	r0, #1
200006c4:	f04f 0100 	mov.w	r1, #0
200006c8:	f7ff ffa0 	bl	2000060c <setWaveform>

	  // play the effect!
	  go();
200006cc:	f7ff ffc2 	bl	20000654 <go>
}
200006d0:	bd80      	pop	{r7, pc}
200006d2:	bf00      	nop

200006d4 <NVIC_EnableIRQ>:
200006d4:	b480      	push	{r7}
200006d6:	b083      	sub	sp, #12
200006d8:	af00      	add	r7, sp, #0
200006da:	4603      	mov	r3, r0
200006dc:	80fb      	strh	r3, [r7, #6]
200006de:	f24e 1300 	movw	r3, #57600	; 0xe100
200006e2:	f2ce 0300 	movt	r3, #57344	; 0xe000
200006e6:	f9b7 2006 	ldrsh.w	r2, [r7, #6]
200006ea:	ea4f 1252 	mov.w	r2, r2, lsr #5
200006ee:	88f9      	ldrh	r1, [r7, #6]
200006f0:	f001 011f 	and.w	r1, r1, #31
200006f4:	f04f 0001 	mov.w	r0, #1
200006f8:	fa00 f101 	lsl.w	r1, r0, r1
200006fc:	f843 1022 	str.w	r1, [r3, r2, lsl #2]
20000700:	f107 070c 	add.w	r7, r7, #12
20000704:	46bd      	mov	sp, r7
20000706:	bc80      	pop	{r7}
20000708:	4770      	bx	lr
2000070a:	bf00      	nop

2000070c <NVIC_DisableIRQ>:
2000070c:	b480      	push	{r7}
2000070e:	b083      	sub	sp, #12
20000710:	af00      	add	r7, sp, #0
20000712:	4603      	mov	r3, r0
20000714:	80fb      	strh	r3, [r7, #6]
20000716:	f24e 1300 	movw	r3, #57600	; 0xe100
2000071a:	f2ce 0300 	movt	r3, #57344	; 0xe000
2000071e:	f9b7 2006 	ldrsh.w	r2, [r7, #6]
20000722:	ea4f 1252 	mov.w	r2, r2, lsr #5
20000726:	88f9      	ldrh	r1, [r7, #6]
20000728:	f001 011f 	and.w	r1, r1, #31
2000072c:	f04f 0001 	mov.w	r0, #1
20000730:	fa00 f101 	lsl.w	r1, r0, r1
20000734:	f102 0220 	add.w	r2, r2, #32
20000738:	f843 1022 	str.w	r1, [r3, r2, lsl #2]
2000073c:	f107 070c 	add.w	r7, r7, #12
20000740:	46bd      	mov	sp, r7
20000742:	bc80      	pop	{r7}
20000744:	4770      	bx	lr
20000746:	bf00      	nop

20000748 <NVIC_ClearPendingIRQ>:
20000748:	b480      	push	{r7}
2000074a:	b083      	sub	sp, #12
2000074c:	af00      	add	r7, sp, #0
2000074e:	4603      	mov	r3, r0
20000750:	80fb      	strh	r3, [r7, #6]
20000752:	f24e 1300 	movw	r3, #57600	; 0xe100
20000756:	f2ce 0300 	movt	r3, #57344	; 0xe000
2000075a:	f9b7 2006 	ldrsh.w	r2, [r7, #6]
2000075e:	ea4f 1252 	mov.w	r2, r2, lsr #5
20000762:	88f9      	ldrh	r1, [r7, #6]
20000764:	f001 011f 	and.w	r1, r1, #31
20000768:	f04f 0001 	mov.w	r0, #1
2000076c:	fa00 f101 	lsl.w	r1, r0, r1
20000770:	f102 0260 	add.w	r2, r2, #96	; 0x60
20000774:	f843 1022 	str.w	r1, [r3, r2, lsl #2]
20000778:	f107 070c 	add.w	r7, r7, #12
2000077c:	46bd      	mov	sp, r7
2000077e:	bc80      	pop	{r7}
20000780:	4770      	bx	lr
20000782:	bf00      	nop

20000784 <MSS_I2C_init>:
20000784:	b580      	push	{r7, lr}
20000786:	b084      	sub	sp, #16
20000788:	af00      	add	r7, sp, #0
2000078a:	6078      	str	r0, [r7, #4]
2000078c:	4613      	mov	r3, r2
2000078e:	460a      	mov	r2, r1
20000790:	70fa      	strb	r2, [r7, #3]
20000792:	70bb      	strb	r3, [r7, #2]
20000794:	78bb      	ldrb	r3, [r7, #2]
20000796:	60fb      	str	r3, [r7, #12]
20000798:	687a      	ldr	r2, [r7, #4]
2000079a:	f241 5370 	movw	r3, #5488	; 0x1570
2000079e:	f2c2 0300 	movt	r3, #8192	; 0x2000
200007a2:	429a      	cmp	r2, r3
200007a4:	d007      	beq.n	200007b6 <MSS_I2C_init+0x32>
200007a6:	687a      	ldr	r2, [r7, #4]
200007a8:	f241 53e4 	movw	r3, #5604	; 0x15e4
200007ac:	f2c2 0300 	movt	r3, #8192	; 0x2000
200007b0:	429a      	cmp	r2, r3
200007b2:	d000      	beq.n	200007b6 <MSS_I2C_init+0x32>
200007b4:	be00      	bkpt	0x0000
200007b6:	f000 fdc9 	bl	2000134c <disable_interrupts>
200007ba:	4603      	mov	r3, r0
200007bc:	60bb      	str	r3, [r7, #8]
200007be:	6878      	ldr	r0, [r7, #4]
200007c0:	f04f 0100 	mov.w	r1, #0
200007c4:	f04f 0274 	mov.w	r2, #116	; 0x74
200007c8:	f000 fe54 	bl	20001474 <memset>
200007cc:	687a      	ldr	r2, [r7, #4]
200007ce:	f241 5370 	movw	r3, #5488	; 0x1570
200007d2:	f2c2 0300 	movt	r3, #8192	; 0x2000
200007d6:	429a      	cmp	r2, r3
200007d8:	d12c      	bne.n	20000834 <MSS_I2C_init+0xb0>
200007da:	687b      	ldr	r3, [r7, #4]
200007dc:	f04f 020e 	mov.w	r2, #14
200007e0:	825a      	strh	r2, [r3, #18]
200007e2:	687a      	ldr	r2, [r7, #4]
200007e4:	f242 0300 	movw	r3, #8192	; 0x2000
200007e8:	f2c4 0300 	movt	r3, #16384	; 0x4000
200007ec:	6153      	str	r3, [r2, #20]
200007ee:	687a      	ldr	r2, [r7, #4]
200007f0:	f240 0300 	movw	r3, #0
200007f4:	f2c4 2304 	movt	r3, #16900	; 0x4204
200007f8:	6193      	str	r3, [r2, #24]
200007fa:	f242 0300 	movw	r3, #8192	; 0x2000
200007fe:	f2ce 0304 	movt	r3, #57348	; 0xe004
20000802:	f242 0200 	movw	r2, #8192	; 0x2000
20000806:	f2ce 0204 	movt	r2, #57348	; 0xe004
2000080a:	6b12      	ldr	r2, [r2, #48]	; 0x30
2000080c:	f442 6200 	orr.w	r2, r2, #2048	; 0x800
20000810:	631a      	str	r2, [r3, #48]	; 0x30
20000812:	f04f 000e 	mov.w	r0, #14
20000816:	f7ff ff97 	bl	20000748 <NVIC_ClearPendingIRQ>
2000081a:	f242 0300 	movw	r3, #8192	; 0x2000
2000081e:	f2ce 0304 	movt	r3, #57348	; 0xe004
20000822:	f242 0200 	movw	r2, #8192	; 0x2000
20000826:	f2ce 0204 	movt	r2, #57348	; 0xe004
2000082a:	6b12      	ldr	r2, [r2, #48]	; 0x30
2000082c:	f422 6200 	bic.w	r2, r2, #2048	; 0x800
20000830:	631a      	str	r2, [r3, #48]	; 0x30
20000832:	e02b      	b.n	2000088c <MSS_I2C_init+0x108>
20000834:	687b      	ldr	r3, [r7, #4]
20000836:	f04f 0211 	mov.w	r2, #17
2000083a:	825a      	strh	r2, [r3, #18]
2000083c:	687a      	ldr	r2, [r7, #4]
2000083e:	f242 0300 	movw	r3, #8192	; 0x2000
20000842:	f2c4 0301 	movt	r3, #16385	; 0x4001
20000846:	6153      	str	r3, [r2, #20]
20000848:	687a      	ldr	r2, [r7, #4]
2000084a:	f240 0300 	movw	r3, #0
2000084e:	f2c4 2324 	movt	r3, #16932	; 0x4224
20000852:	6193      	str	r3, [r2, #24]
20000854:	f242 0300 	movw	r3, #8192	; 0x2000
20000858:	f2ce 0304 	movt	r3, #57348	; 0xe004
2000085c:	f242 0200 	movw	r2, #8192	; 0x2000
20000860:	f2ce 0204 	movt	r2, #57348	; 0xe004
20000864:	6b12      	ldr	r2, [r2, #48]	; 0x30
20000866:	f442 5280 	orr.w	r2, r2, #4096	; 0x1000
2000086a:	631a      	str	r2, [r3, #48]	; 0x30
2000086c:	f04f 0011 	mov.w	r0, #17
20000870:	f7ff ff6a 	bl	20000748 <NVIC_ClearPendingIRQ>
20000874:	f242 0300 	movw	r3, #8192	; 0x2000
20000878:	f2ce 0304 	movt	r3, #57348	; 0xe004
2000087c:	f242 0200 	movw	r2, #8192	; 0x2000
20000880:	f2ce 0204 	movt	r2, #57348	; 0xe004
20000884:	6b12      	ldr	r2, [r2, #48]	; 0x30
20000886:	f422 5280 	bic.w	r2, r2, #4096	; 0x1000
2000088a:	631a      	str	r2, [r3, #48]	; 0x30
2000088c:	687b      	ldr	r3, [r7, #4]
2000088e:	699b      	ldr	r3, [r3, #24]
20000890:	461a      	mov	r2, r3
20000892:	687b      	ldr	r3, [r7, #4]
20000894:	61da      	str	r2, [r3, #28]
20000896:	78fb      	ldrb	r3, [r7, #3]
20000898:	ea4f 0243 	mov.w	r2, r3, lsl #1
2000089c:	687b      	ldr	r3, [r7, #4]
2000089e:	601a      	str	r2, [r3, #0]
200008a0:	687b      	ldr	r3, [r7, #4]
200008a2:	699b      	ldr	r3, [r3, #24]
200008a4:	68fa      	ldr	r2, [r7, #12]
200008a6:	ea4f 0292 	mov.w	r2, r2, lsr #2
200008aa:	f002 0201 	and.w	r2, r2, #1
200008ae:	61da      	str	r2, [r3, #28]
200008b0:	687b      	ldr	r3, [r7, #4]
200008b2:	699b      	ldr	r3, [r3, #24]
200008b4:	68fa      	ldr	r2, [r7, #12]
200008b6:	ea4f 0252 	mov.w	r2, r2, lsr #1
200008ba:	f002 0201 	and.w	r2, r2, #1
200008be:	605a      	str	r2, [r3, #4]
200008c0:	687b      	ldr	r3, [r7, #4]
200008c2:	699b      	ldr	r3, [r3, #24]
200008c4:	68fa      	ldr	r2, [r7, #12]
200008c6:	f002 0201 	and.w	r2, r2, #1
200008ca:	601a      	str	r2, [r3, #0]
200008cc:	687b      	ldr	r3, [r7, #4]
200008ce:	695b      	ldr	r3, [r3, #20]
200008d0:	687a      	ldr	r2, [r7, #4]
200008d2:	6812      	ldr	r2, [r2, #0]
200008d4:	b2d2      	uxtb	r2, r2
200008d6:	731a      	strb	r2, [r3, #12]
200008d8:	687b      	ldr	r3, [r7, #4]
200008da:	699b      	ldr	r3, [r3, #24]
200008dc:	f04f 0201 	mov.w	r2, #1
200008e0:	619a      	str	r2, [r3, #24]
200008e2:	68b8      	ldr	r0, [r7, #8]
200008e4:	f000 fd44 	bl	20001370 <restore_interrupts>
200008e8:	f107 0710 	add.w	r7, r7, #16
200008ec:	46bd      	mov	sp, r7
200008ee:	bd80      	pop	{r7, pc}

200008f0 <MSS_I2C_write>:
200008f0:	b580      	push	{r7, lr}
200008f2:	b086      	sub	sp, #24
200008f4:	af00      	add	r7, sp, #0
200008f6:	60f8      	str	r0, [r7, #12]
200008f8:	607a      	str	r2, [r7, #4]
200008fa:	460a      	mov	r2, r1
200008fc:	72fa      	strb	r2, [r7, #11]
200008fe:	807b      	strh	r3, [r7, #2]
20000900:	68fa      	ldr	r2, [r7, #12]
20000902:	f241 5370 	movw	r3, #5488	; 0x1570
20000906:	f2c2 0300 	movt	r3, #8192	; 0x2000
2000090a:	429a      	cmp	r2, r3
2000090c:	d007      	beq.n	2000091e <MSS_I2C_write+0x2e>
2000090e:	68fa      	ldr	r2, [r7, #12]
20000910:	f241 53e4 	movw	r3, #5604	; 0x15e4
20000914:	f2c2 0300 	movt	r3, #8192	; 0x2000
20000918:	429a      	cmp	r2, r3
2000091a:	d000      	beq.n	2000091e <MSS_I2C_write+0x2e>
2000091c:	be00      	bkpt	0x0000
2000091e:	f000 fd15 	bl	2000134c <disable_interrupts>
20000922:	4603      	mov	r3, r0
20000924:	617b      	str	r3, [r7, #20]
20000926:	68fb      	ldr	r3, [r7, #12]
20000928:	7a1b      	ldrb	r3, [r3, #8]
2000092a:	2b00      	cmp	r3, #0
2000092c:	d103      	bne.n	20000936 <MSS_I2C_write+0x46>
2000092e:	68fb      	ldr	r3, [r7, #12]
20000930:	f04f 0201 	mov.w	r2, #1
20000934:	721a      	strb	r2, [r3, #8]
20000936:	68fb      	ldr	r3, [r7, #12]
20000938:	f04f 0201 	mov.w	r2, #1
2000093c:	f883 2072 	strb.w	r2, [r3, #114]	; 0x72
20000940:	7afb      	ldrb	r3, [r7, #11]
20000942:	ea4f 0243 	mov.w	r2, r3, lsl #1
20000946:	68fb      	ldr	r3, [r7, #12]
20000948:	605a      	str	r2, [r3, #4]
2000094a:	68fb      	ldr	r3, [r7, #12]
2000094c:	f04f 0200 	mov.w	r2, #0
20000950:	62da      	str	r2, [r3, #44]	; 0x2c
20000952:	68fb      	ldr	r3, [r7, #12]
20000954:	687a      	ldr	r2, [r7, #4]
20000956:	621a      	str	r2, [r3, #32]
20000958:	887a      	ldrh	r2, [r7, #2]
2000095a:	68fb      	ldr	r3, [r7, #12]
2000095c:	625a      	str	r2, [r3, #36]	; 0x24
2000095e:	68fb      	ldr	r3, [r7, #12]
20000960:	f04f 0200 	mov.w	r2, #0
20000964:	629a      	str	r2, [r3, #40]	; 0x28
20000966:	68fb      	ldr	r3, [r7, #12]
20000968:	f04f 0201 	mov.w	r2, #1
2000096c:	f883 203c 	strb.w	r2, [r3, #60]	; 0x3c
20000970:	68fb      	ldr	r3, [r7, #12]
20000972:	f897 2020 	ldrb.w	r2, [r7, #32]
20000976:	741a      	strb	r2, [r3, #16]
20000978:	68fb      	ldr	r3, [r7, #12]
2000097a:	f893 305c 	ldrb.w	r3, [r3, #92]	; 0x5c
2000097e:	b2db      	uxtb	r3, r3
20000980:	2b01      	cmp	r3, #1
20000982:	d105      	bne.n	20000990 <MSS_I2C_write+0xa0>
20000984:	68fb      	ldr	r3, [r7, #12]
20000986:	f04f 0201 	mov.w	r2, #1
2000098a:	f883 2071 	strb.w	r2, [r3, #113]	; 0x71
2000098e:	e004      	b.n	2000099a <MSS_I2C_write+0xaa>
20000990:	68fb      	ldr	r3, [r7, #12]
20000992:	699b      	ldr	r3, [r3, #24]
20000994:	f04f 0201 	mov.w	r2, #1
20000998:	615a      	str	r2, [r3, #20]
2000099a:	68fb      	ldr	r3, [r7, #12]
2000099c:	f893 3070 	ldrb.w	r3, [r3, #112]	; 0x70
200009a0:	2b01      	cmp	r3, #1
200009a2:	d111      	bne.n	200009c8 <MSS_I2C_write+0xd8>
200009a4:	68fb      	ldr	r3, [r7, #12]
200009a6:	699b      	ldr	r3, [r3, #24]
200009a8:	f04f 0200 	mov.w	r2, #0
200009ac:	60da      	str	r2, [r3, #12]
200009ae:	68fb      	ldr	r3, [r7, #12]
200009b0:	695b      	ldr	r3, [r3, #20]
200009b2:	791b      	ldrb	r3, [r3, #4]
200009b4:	74fb      	strb	r3, [r7, #19]
200009b6:	7cfb      	ldrb	r3, [r7, #19]
200009b8:	b2db      	uxtb	r3, r3
200009ba:	74fb      	strb	r3, [r7, #19]
200009bc:	68fb      	ldr	r3, [r7, #12]
200009be:	8a5b      	ldrh	r3, [r3, #18]
200009c0:	b21b      	sxth	r3, r3
200009c2:	4618      	mov	r0, r3
200009c4:	f7ff fec0 	bl	20000748 <NVIC_ClearPendingIRQ>
200009c8:	68fb      	ldr	r3, [r7, #12]
200009ca:	8a5b      	ldrh	r3, [r3, #18]
200009cc:	b21b      	sxth	r3, r3
200009ce:	4618      	mov	r0, r3
200009d0:	f7ff fe80 	bl	200006d4 <NVIC_EnableIRQ>
200009d4:	6978      	ldr	r0, [r7, #20]
200009d6:	f000 fccb 	bl	20001370 <restore_interrupts>
200009da:	f107 0718 	add.w	r7, r7, #24
200009de:	46bd      	mov	sp, r7
200009e0:	bd80      	pop	{r7, pc}
200009e2:	bf00      	nop

200009e4 <MSS_I2C_wait_complete>:
200009e4:	b480      	push	{r7}
200009e6:	b085      	sub	sp, #20
200009e8:	af00      	add	r7, sp, #0
200009ea:	6078      	str	r0, [r7, #4]
200009ec:	6039      	str	r1, [r7, #0]
200009ee:	687a      	ldr	r2, [r7, #4]
200009f0:	f241 5370 	movw	r3, #5488	; 0x1570
200009f4:	f2c2 0300 	movt	r3, #8192	; 0x2000
200009f8:	429a      	cmp	r2, r3
200009fa:	d007      	beq.n	20000a0c <MSS_I2C_wait_complete+0x28>
200009fc:	687a      	ldr	r2, [r7, #4]
200009fe:	f241 53e4 	movw	r3, #5604	; 0x15e4
20000a02:	f2c2 0300 	movt	r3, #8192	; 0x2000
20000a06:	429a      	cmp	r2, r3
20000a08:	d000      	beq.n	20000a0c <MSS_I2C_wait_complete+0x28>
20000a0a:	be00      	bkpt	0x0000
20000a0c:	687b      	ldr	r3, [r7, #4]
20000a0e:	683a      	ldr	r2, [r7, #0]
20000a10:	641a      	str	r2, [r3, #64]	; 0x40
20000a12:	687b      	ldr	r3, [r7, #4]
20000a14:	f893 303c 	ldrb.w	r3, [r3, #60]	; 0x3c
20000a18:	73fb      	strb	r3, [r7, #15]
20000a1a:	7bfb      	ldrb	r3, [r7, #15]
20000a1c:	2b01      	cmp	r3, #1
20000a1e:	d0f8      	beq.n	20000a12 <MSS_I2C_wait_complete+0x2e>
20000a20:	7bfb      	ldrb	r3, [r7, #15]
20000a22:	4618      	mov	r0, r3
20000a24:	f107 0714 	add.w	r7, r7, #20
20000a28:	46bd      	mov	sp, r7
20000a2a:	bc80      	pop	{r7}
20000a2c:	4770      	bx	lr
20000a2e:	bf00      	nop

20000a30 <enable_slave_if_required>:
20000a30:	b480      	push	{r7}
20000a32:	b083      	sub	sp, #12
20000a34:	af00      	add	r7, sp, #0
20000a36:	6078      	str	r0, [r7, #4]
20000a38:	687b      	ldr	r3, [r7, #4]
20000a3a:	f893 3068 	ldrb.w	r3, [r3, #104]	; 0x68
20000a3e:	2b00      	cmp	r3, #0
20000a40:	d004      	beq.n	20000a4c <enable_slave_if_required+0x1c>
20000a42:	687b      	ldr	r3, [r7, #4]
20000a44:	699b      	ldr	r3, [r3, #24]
20000a46:	f04f 0201 	mov.w	r2, #1
20000a4a:	609a      	str	r2, [r3, #8]
20000a4c:	f107 070c 	add.w	r7, r7, #12
20000a50:	46bd      	mov	sp, r7
20000a52:	bc80      	pop	{r7}
20000a54:	4770      	bx	lr
20000a56:	bf00      	nop

20000a58 <mss_i2c_isr>:
20000a58:	b580      	push	{r7, lr}
20000a5a:	b084      	sub	sp, #16
20000a5c:	af00      	add	r7, sp, #0
20000a5e:	6078      	str	r0, [r7, #4]
20000a60:	f04f 0301 	mov.w	r3, #1
20000a64:	73bb      	strb	r3, [r7, #14]
20000a66:	687a      	ldr	r2, [r7, #4]
20000a68:	f241 5370 	movw	r3, #5488	; 0x1570
20000a6c:	f2c2 0300 	movt	r3, #8192	; 0x2000
20000a70:	429a      	cmp	r2, r3
20000a72:	d007      	beq.n	20000a84 <mss_i2c_isr+0x2c>
20000a74:	687a      	ldr	r2, [r7, #4]
20000a76:	f241 53e4 	movw	r3, #5604	; 0x15e4
20000a7a:	f2c2 0300 	movt	r3, #8192	; 0x2000
20000a7e:	429a      	cmp	r2, r3
20000a80:	d000      	beq.n	20000a84 <mss_i2c_isr+0x2c>
20000a82:	be00      	bkpt	0x0000
20000a84:	687b      	ldr	r3, [r7, #4]
20000a86:	695b      	ldr	r3, [r3, #20]
20000a88:	791b      	ldrb	r3, [r3, #4]
20000a8a:	72fb      	strb	r3, [r7, #11]
20000a8c:	7afb      	ldrb	r3, [r7, #11]
20000a8e:	b2db      	uxtb	r3, r3
20000a90:	f1a3 0308 	sub.w	r3, r3, #8
20000a94:	2bd0      	cmp	r3, #208	; 0xd0
20000a96:	f200 841c 	bhi.w	200012d2 <mss_i2c_isr+0x87a>
20000a9a:	a201      	add	r2, pc, #4	; (adr r2, 20000aa0 <mss_i2c_isr+0x48>)
20000a9c:	f852 f023 	ldr.w	pc, [r2, r3, lsl #2]
20000aa0:	20000de5 	.word	0x20000de5
20000aa4:	200012d3 	.word	0x200012d3
20000aa8:	200012d3 	.word	0x200012d3
20000aac:	200012d3 	.word	0x200012d3
20000ab0:	200012d3 	.word	0x200012d3
20000ab4:	200012d3 	.word	0x200012d3
20000ab8:	200012d3 	.word	0x200012d3
20000abc:	200012d3 	.word	0x200012d3
20000ac0:	20000de5 	.word	0x20000de5
20000ac4:	200012d3 	.word	0x200012d3
20000ac8:	200012d3 	.word	0x200012d3
20000acc:	200012d3 	.word	0x200012d3
20000ad0:	200012d3 	.word	0x200012d3
20000ad4:	200012d3 	.word	0x200012d3
20000ad8:	200012d3 	.word	0x200012d3
20000adc:	200012d3 	.word	0x200012d3
20000ae0:	20000e89 	.word	0x20000e89
20000ae4:	200012d3 	.word	0x200012d3
20000ae8:	200012d3 	.word	0x200012d3
20000aec:	200012d3 	.word	0x200012d3
20000af0:	200012d3 	.word	0x200012d3
20000af4:	200012d3 	.word	0x200012d3
20000af8:	200012d3 	.word	0x200012d3
20000afc:	200012d3 	.word	0x200012d3
20000b00:	20000e65 	.word	0x20000e65
20000b04:	200012d3 	.word	0x200012d3
20000b08:	200012d3 	.word	0x200012d3
20000b0c:	200012d3 	.word	0x200012d3
20000b10:	200012d3 	.word	0x200012d3
20000b14:	200012d3 	.word	0x200012d3
20000b18:	200012d3 	.word	0x200012d3
20000b1c:	200012d3 	.word	0x200012d3
20000b20:	20000e89 	.word	0x20000e89
20000b24:	200012d3 	.word	0x200012d3
20000b28:	200012d3 	.word	0x200012d3
20000b2c:	200012d3 	.word	0x200012d3
20000b30:	200012d3 	.word	0x200012d3
20000b34:	200012d3 	.word	0x200012d3
20000b38:	200012d3 	.word	0x200012d3
20000b3c:	200012d3 	.word	0x200012d3
20000b40:	20000f1d 	.word	0x20000f1d
20000b44:	200012d3 	.word	0x200012d3
20000b48:	200012d3 	.word	0x200012d3
20000b4c:	200012d3 	.word	0x200012d3
20000b50:	200012d3 	.word	0x200012d3
20000b54:	200012d3 	.word	0x200012d3
20000b58:	200012d3 	.word	0x200012d3
20000b5c:	200012d3 	.word	0x200012d3
20000b60:	20000e59 	.word	0x20000e59
20000b64:	200012d3 	.word	0x200012d3
20000b68:	200012d3 	.word	0x200012d3
20000b6c:	200012d3 	.word	0x200012d3
20000b70:	200012d3 	.word	0x200012d3
20000b74:	200012d3 	.word	0x200012d3
20000b78:	200012d3 	.word	0x200012d3
20000b7c:	200012d3 	.word	0x200012d3
20000b80:	20000f41 	.word	0x20000f41
20000b84:	200012d3 	.word	0x200012d3
20000b88:	200012d3 	.word	0x200012d3
20000b8c:	200012d3 	.word	0x200012d3
20000b90:	200012d3 	.word	0x200012d3
20000b94:	200012d3 	.word	0x200012d3
20000b98:	200012d3 	.word	0x200012d3
20000b9c:	200012d3 	.word	0x200012d3
20000ba0:	20000f91 	.word	0x20000f91
20000ba4:	200012d3 	.word	0x200012d3
20000ba8:	200012d3 	.word	0x200012d3
20000bac:	200012d3 	.word	0x200012d3
20000bb0:	200012d3 	.word	0x200012d3
20000bb4:	200012d3 	.word	0x200012d3
20000bb8:	200012d3 	.word	0x200012d3
20000bbc:	200012d3 	.word	0x200012d3
20000bc0:	20000fb5 	.word	0x20000fb5
20000bc4:	200012d3 	.word	0x200012d3
20000bc8:	200012d3 	.word	0x200012d3
20000bcc:	200012d3 	.word	0x200012d3
20000bd0:	200012d3 	.word	0x200012d3
20000bd4:	200012d3 	.word	0x200012d3
20000bd8:	200012d3 	.word	0x200012d3
20000bdc:	200012d3 	.word	0x200012d3
20000be0:	20000fef 	.word	0x20000fef
20000be4:	200012d3 	.word	0x200012d3
20000be8:	200012d3 	.word	0x200012d3
20000bec:	200012d3 	.word	0x200012d3
20000bf0:	200012d3 	.word	0x200012d3
20000bf4:	200012d3 	.word	0x200012d3
20000bf8:	200012d3 	.word	0x200012d3
20000bfc:	200012d3 	.word	0x200012d3
20000c00:	20001091 	.word	0x20001091
20000c04:	200012d3 	.word	0x200012d3
20000c08:	200012d3 	.word	0x200012d3
20000c0c:	200012d3 	.word	0x200012d3
20000c10:	200012d3 	.word	0x200012d3
20000c14:	200012d3 	.word	0x200012d3
20000c18:	200012d3 	.word	0x200012d3
20000c1c:	200012d3 	.word	0x200012d3
20000c20:	20001087 	.word	0x20001087
20000c24:	200012d3 	.word	0x200012d3
20000c28:	200012d3 	.word	0x200012d3
20000c2c:	200012d3 	.word	0x200012d3
20000c30:	200012d3 	.word	0x200012d3
20000c34:	200012d3 	.word	0x200012d3
20000c38:	200012d3 	.word	0x200012d3
20000c3c:	200012d3 	.word	0x200012d3
20000c40:	20001091 	.word	0x20001091
20000c44:	200012d3 	.word	0x200012d3
20000c48:	200012d3 	.word	0x200012d3
20000c4c:	200012d3 	.word	0x200012d3
20000c50:	200012d3 	.word	0x200012d3
20000c54:	200012d3 	.word	0x200012d3
20000c58:	200012d3 	.word	0x200012d3
20000c5c:	200012d3 	.word	0x200012d3
20000c60:	20001087 	.word	0x20001087
20000c64:	200012d3 	.word	0x200012d3
20000c68:	200012d3 	.word	0x200012d3
20000c6c:	200012d3 	.word	0x200012d3
20000c70:	200012d3 	.word	0x200012d3
20000c74:	200012d3 	.word	0x200012d3
20000c78:	200012d3 	.word	0x200012d3
20000c7c:	200012d3 	.word	0x200012d3
20000c80:	200010d3 	.word	0x200010d3
20000c84:	200012d3 	.word	0x200012d3
20000c88:	200012d3 	.word	0x200012d3
20000c8c:	200012d3 	.word	0x200012d3
20000c90:	200012d3 	.word	0x200012d3
20000c94:	200012d3 	.word	0x200012d3
20000c98:	200012d3 	.word	0x200012d3
20000c9c:	200012d3 	.word	0x200012d3
20000ca0:	20001053 	.word	0x20001053
20000ca4:	200012d3 	.word	0x200012d3
20000ca8:	200012d3 	.word	0x200012d3
20000cac:	200012d3 	.word	0x200012d3
20000cb0:	200012d3 	.word	0x200012d3
20000cb4:	200012d3 	.word	0x200012d3
20000cb8:	200012d3 	.word	0x200012d3
20000cbc:	200012d3 	.word	0x200012d3
20000cc0:	200010d3 	.word	0x200010d3
20000cc4:	200012d3 	.word	0x200012d3
20000cc8:	200012d3 	.word	0x200012d3
20000ccc:	200012d3 	.word	0x200012d3
20000cd0:	200012d3 	.word	0x200012d3
20000cd4:	200012d3 	.word	0x200012d3
20000cd8:	200012d3 	.word	0x200012d3
20000cdc:	200012d3 	.word	0x200012d3
20000ce0:	20001053 	.word	0x20001053
20000ce4:	200012d3 	.word	0x200012d3
20000ce8:	200012d3 	.word	0x200012d3
20000cec:	200012d3 	.word	0x200012d3
20000cf0:	200012d3 	.word	0x200012d3
20000cf4:	200012d3 	.word	0x200012d3
20000cf8:	200012d3 	.word	0x200012d3
20000cfc:	200012d3 	.word	0x200012d3
20000d00:	2000112f 	.word	0x2000112f
20000d04:	200012d3 	.word	0x200012d3
20000d08:	200012d3 	.word	0x200012d3
20000d0c:	200012d3 	.word	0x200012d3
20000d10:	200012d3 	.word	0x200012d3
20000d14:	200012d3 	.word	0x200012d3
20000d18:	200012d3 	.word	0x200012d3
20000d1c:	200012d3 	.word	0x200012d3
20000d20:	20001207 	.word	0x20001207
20000d24:	200012d3 	.word	0x200012d3
20000d28:	200012d3 	.word	0x200012d3
20000d2c:	200012d3 	.word	0x200012d3
20000d30:	200012d3 	.word	0x200012d3
20000d34:	200012d3 	.word	0x200012d3
20000d38:	200012d3 	.word	0x200012d3
20000d3c:	200012d3 	.word	0x200012d3
20000d40:	20001207 	.word	0x20001207
20000d44:	200012d3 	.word	0x200012d3
20000d48:	200012d3 	.word	0x200012d3
20000d4c:	200012d3 	.word	0x200012d3
20000d50:	200012d3 	.word	0x200012d3
20000d54:	200012d3 	.word	0x200012d3
20000d58:	200012d3 	.word	0x200012d3
20000d5c:	200012d3 	.word	0x200012d3
20000d60:	20001207 	.word	0x20001207
20000d64:	200012d3 	.word	0x200012d3
20000d68:	200012d3 	.word	0x200012d3
20000d6c:	200012d3 	.word	0x200012d3
20000d70:	200012d3 	.word	0x200012d3
20000d74:	200012d3 	.word	0x200012d3
20000d78:	200012d3 	.word	0x200012d3
20000d7c:	200012d3 	.word	0x200012d3
20000d80:	20001299 	.word	0x20001299
20000d84:	200012d3 	.word	0x200012d3
20000d88:	200012d3 	.word	0x200012d3
20000d8c:	200012d3 	.word	0x200012d3
20000d90:	200012d3 	.word	0x200012d3
20000d94:	200012d3 	.word	0x200012d3
20000d98:	200012d3 	.word	0x200012d3
20000d9c:	200012d3 	.word	0x200012d3
20000da0:	20001299 	.word	0x20001299
20000da4:	200012d3 	.word	0x200012d3
20000da8:	200012d3 	.word	0x200012d3
20000dac:	200012d3 	.word	0x200012d3
20000db0:	200012d3 	.word	0x200012d3
20000db4:	200012d3 	.word	0x200012d3
20000db8:	200012d3 	.word	0x200012d3
20000dbc:	200012d3 	.word	0x200012d3
20000dc0:	200012d3 	.word	0x200012d3
20000dc4:	200012d3 	.word	0x200012d3
20000dc8:	200012d3 	.word	0x200012d3
20000dcc:	200012d3 	.word	0x200012d3
20000dd0:	200012d3 	.word	0x200012d3
20000dd4:	200012d3 	.word	0x200012d3
20000dd8:	200012d3 	.word	0x200012d3
20000ddc:	200012d3 	.word	0x200012d3
20000de0:	200011d9 	.word	0x200011d9
20000de4:	687b      	ldr	r3, [r7, #4]
20000de6:	699b      	ldr	r3, [r3, #24]
20000de8:	f04f 0200 	mov.w	r2, #0
20000dec:	615a      	str	r2, [r3, #20]
20000dee:	687b      	ldr	r3, [r7, #4]
20000df0:	695b      	ldr	r3, [r3, #20]
20000df2:	687a      	ldr	r2, [r7, #4]
20000df4:	6852      	ldr	r2, [r2, #4]
20000df6:	b2d2      	uxtb	r2, r2
20000df8:	721a      	strb	r2, [r3, #8]
20000dfa:	687b      	ldr	r3, [r7, #4]
20000dfc:	699b      	ldr	r3, [r3, #24]
20000dfe:	687a      	ldr	r2, [r7, #4]
20000e00:	6ad2      	ldr	r2, [r2, #44]	; 0x2c
20000e02:	f8c3 2100 	str.w	r2, [r3, #256]	; 0x100
20000e06:	687b      	ldr	r3, [r7, #4]
20000e08:	6adb      	ldr	r3, [r3, #44]	; 0x2c
20000e0a:	2b00      	cmp	r3, #0
20000e0c:	d104      	bne.n	20000e18 <mss_i2c_isr+0x3c0>
20000e0e:	687b      	ldr	r3, [r7, #4]
20000e10:	f04f 0200 	mov.w	r2, #0
20000e14:	629a      	str	r2, [r3, #40]	; 0x28
20000e16:	e007      	b.n	20000e28 <mss_i2c_isr+0x3d0>
20000e18:	687b      	ldr	r3, [r7, #4]
20000e1a:	6adb      	ldr	r3, [r3, #44]	; 0x2c
20000e1c:	2b01      	cmp	r3, #1
20000e1e:	d103      	bne.n	20000e28 <mss_i2c_isr+0x3d0>
20000e20:	687b      	ldr	r3, [r7, #4]
20000e22:	f04f 0200 	mov.w	r2, #0
20000e26:	639a      	str	r2, [r3, #56]	; 0x38
20000e28:	687b      	ldr	r3, [r7, #4]
20000e2a:	f893 3071 	ldrb.w	r3, [r3, #113]	; 0x71
20000e2e:	2b00      	cmp	r3, #0
20000e30:	d004      	beq.n	20000e3c <mss_i2c_isr+0x3e4>
20000e32:	687b      	ldr	r3, [r7, #4]
20000e34:	f04f 0200 	mov.w	r2, #0
20000e38:	f883 2071 	strb.w	r2, [r3, #113]	; 0x71
20000e3c:	687b      	ldr	r3, [r7, #4]
20000e3e:	7a1a      	ldrb	r2, [r3, #8]
20000e40:	687b      	ldr	r3, [r7, #4]
20000e42:	f893 3072 	ldrb.w	r3, [r3, #114]	; 0x72
20000e46:	429a      	cmp	r2, r3
20000e48:	f000 8267 	beq.w	2000131a <mss_i2c_isr+0x8c2>
20000e4c:	687b      	ldr	r3, [r7, #4]
20000e4e:	f893 2072 	ldrb.w	r2, [r3, #114]	; 0x72
20000e52:	687b      	ldr	r3, [r7, #4]
20000e54:	721a      	strb	r2, [r3, #8]
20000e56:	e269      	b.n	2000132c <mss_i2c_isr+0x8d4>
20000e58:	687b      	ldr	r3, [r7, #4]
20000e5a:	699b      	ldr	r3, [r3, #24]
20000e5c:	f04f 0201 	mov.w	r2, #1
20000e60:	615a      	str	r2, [r3, #20]
20000e62:	e263      	b.n	2000132c <mss_i2c_isr+0x8d4>
20000e64:	687b      	ldr	r3, [r7, #4]
20000e66:	699b      	ldr	r3, [r3, #24]
20000e68:	f04f 0201 	mov.w	r2, #1
20000e6c:	611a      	str	r2, [r3, #16]
20000e6e:	687b      	ldr	r3, [r7, #4]
20000e70:	f04f 0202 	mov.w	r2, #2
20000e74:	f883 203c 	strb.w	r2, [r3, #60]	; 0x3c
20000e78:	687b      	ldr	r3, [r7, #4]
20000e7a:	f04f 0200 	mov.w	r2, #0
20000e7e:	721a      	strb	r2, [r3, #8]
20000e80:	6878      	ldr	r0, [r7, #4]
20000e82:	f7ff fdd5 	bl	20000a30 <enable_slave_if_required>
20000e86:	e251      	b.n	2000132c <mss_i2c_isr+0x8d4>
20000e88:	687b      	ldr	r3, [r7, #4]
20000e8a:	6a9a      	ldr	r2, [r3, #40]	; 0x28
20000e8c:	687b      	ldr	r3, [r7, #4]
20000e8e:	6a5b      	ldr	r3, [r3, #36]	; 0x24
20000e90:	429a      	cmp	r2, r3
20000e92:	d20d      	bcs.n	20000eb0 <mss_i2c_isr+0x458>
20000e94:	687b      	ldr	r3, [r7, #4]
20000e96:	695a      	ldr	r2, [r3, #20]
20000e98:	687b      	ldr	r3, [r7, #4]
20000e9a:	6a19      	ldr	r1, [r3, #32]
20000e9c:	687b      	ldr	r3, [r7, #4]
20000e9e:	6a9b      	ldr	r3, [r3, #40]	; 0x28
20000ea0:	4419      	add	r1, r3
20000ea2:	7809      	ldrb	r1, [r1, #0]
20000ea4:	7211      	strb	r1, [r2, #8]
20000ea6:	f103 0201 	add.w	r2, r3, #1
20000eaa:	687b      	ldr	r3, [r7, #4]
20000eac:	629a      	str	r2, [r3, #40]	; 0x28
20000eae:	e23d      	b.n	2000132c <mss_i2c_isr+0x8d4>
20000eb0:	687b      	ldr	r3, [r7, #4]
20000eb2:	7a1b      	ldrb	r3, [r3, #8]
20000eb4:	2b03      	cmp	r3, #3
20000eb6:	d109      	bne.n	20000ecc <mss_i2c_isr+0x474>
20000eb8:	687b      	ldr	r3, [r7, #4]
20000eba:	f04f 0201 	mov.w	r2, #1
20000ebe:	62da      	str	r2, [r3, #44]	; 0x2c
20000ec0:	687b      	ldr	r3, [r7, #4]
20000ec2:	699b      	ldr	r3, [r3, #24]
20000ec4:	f04f 0201 	mov.w	r2, #1
20000ec8:	615a      	str	r2, [r3, #20]
20000eca:	e22f      	b.n	2000132c <mss_i2c_isr+0x8d4>
20000ecc:	687b      	ldr	r3, [r7, #4]
20000ece:	f04f 0200 	mov.w	r2, #0
20000ed2:	721a      	strb	r2, [r3, #8]
20000ed4:	687b      	ldr	r3, [r7, #4]
20000ed6:	7c1b      	ldrb	r3, [r3, #16]
20000ed8:	f003 0301 	and.w	r3, r3, #1
20000edc:	737b      	strb	r3, [r7, #13]
20000ede:	687b      	ldr	r3, [r7, #4]
20000ee0:	7b7a      	ldrb	r2, [r7, #13]
20000ee2:	f883 2070 	strb.w	r2, [r3, #112]	; 0x70
20000ee6:	7b7b      	ldrb	r3, [r7, #13]
20000ee8:	2b00      	cmp	r3, #0
20000eea:	d108      	bne.n	20000efe <mss_i2c_isr+0x4a6>
20000eec:	687b      	ldr	r3, [r7, #4]
20000eee:	699b      	ldr	r3, [r3, #24]
20000ef0:	f04f 0201 	mov.w	r2, #1
20000ef4:	611a      	str	r2, [r3, #16]
20000ef6:	6878      	ldr	r0, [r7, #4]
20000ef8:	f7ff fd9a 	bl	20000a30 <enable_slave_if_required>
20000efc:	e008      	b.n	20000f10 <mss_i2c_isr+0x4b8>
20000efe:	687b      	ldr	r3, [r7, #4]
20000f00:	8a5b      	ldrh	r3, [r3, #18]
20000f02:	b21b      	sxth	r3, r3
20000f04:	4618      	mov	r0, r3
20000f06:	f7ff fc01 	bl	2000070c <NVIC_DisableIRQ>
20000f0a:	f04f 0300 	mov.w	r3, #0
20000f0e:	73bb      	strb	r3, [r7, #14]
20000f10:	687b      	ldr	r3, [r7, #4]
20000f12:	f04f 0200 	mov.w	r2, #0
20000f16:	f883 203c 	strb.w	r2, [r3, #60]	; 0x3c
20000f1a:	e207      	b.n	2000132c <mss_i2c_isr+0x8d4>
20000f1c:	687b      	ldr	r3, [r7, #4]
20000f1e:	699b      	ldr	r3, [r3, #24]
20000f20:	f04f 0201 	mov.w	r2, #1
20000f24:	611a      	str	r2, [r3, #16]
20000f26:	687b      	ldr	r3, [r7, #4]
20000f28:	f04f 0202 	mov.w	r2, #2
20000f2c:	f883 203c 	strb.w	r2, [r3, #60]	; 0x3c
20000f30:	687b      	ldr	r3, [r7, #4]
20000f32:	f04f 0200 	mov.w	r2, #0
20000f36:	721a      	strb	r2, [r3, #8]
20000f38:	6878      	ldr	r0, [r7, #4]
20000f3a:	f7ff fd79 	bl	20000a30 <enable_slave_if_required>
20000f3e:	e1f5      	b.n	2000132c <mss_i2c_isr+0x8d4>
20000f40:	687b      	ldr	r3, [r7, #4]
20000f42:	6b5b      	ldr	r3, [r3, #52]	; 0x34
20000f44:	2b01      	cmp	r3, #1
20000f46:	d905      	bls.n	20000f54 <mss_i2c_isr+0x4fc>
20000f48:	687b      	ldr	r3, [r7, #4]
20000f4a:	699b      	ldr	r3, [r3, #24]
20000f4c:	f04f 0201 	mov.w	r2, #1
20000f50:	609a      	str	r2, [r3, #8]
20000f52:	e1eb      	b.n	2000132c <mss_i2c_isr+0x8d4>
20000f54:	687b      	ldr	r3, [r7, #4]
20000f56:	6b5b      	ldr	r3, [r3, #52]	; 0x34
20000f58:	2b01      	cmp	r3, #1
20000f5a:	d105      	bne.n	20000f68 <mss_i2c_isr+0x510>
20000f5c:	687b      	ldr	r3, [r7, #4]
20000f5e:	699b      	ldr	r3, [r3, #24]
20000f60:	f04f 0200 	mov.w	r2, #0
20000f64:	609a      	str	r2, [r3, #8]
20000f66:	e1e1      	b.n	2000132c <mss_i2c_isr+0x8d4>
20000f68:	687b      	ldr	r3, [r7, #4]
20000f6a:	699b      	ldr	r3, [r3, #24]
20000f6c:	f04f 0201 	mov.w	r2, #1
20000f70:	609a      	str	r2, [r3, #8]
20000f72:	687b      	ldr	r3, [r7, #4]
20000f74:	699b      	ldr	r3, [r3, #24]
20000f76:	f04f 0201 	mov.w	r2, #1
20000f7a:	611a      	str	r2, [r3, #16]
20000f7c:	687b      	ldr	r3, [r7, #4]
20000f7e:	f04f 0200 	mov.w	r2, #0
20000f82:	f883 203c 	strb.w	r2, [r3, #60]	; 0x3c
20000f86:	687b      	ldr	r3, [r7, #4]
20000f88:	f04f 0200 	mov.w	r2, #0
20000f8c:	721a      	strb	r2, [r3, #8]
20000f8e:	e1cd      	b.n	2000132c <mss_i2c_isr+0x8d4>
20000f90:	687b      	ldr	r3, [r7, #4]
20000f92:	699b      	ldr	r3, [r3, #24]
20000f94:	f04f 0201 	mov.w	r2, #1
20000f98:	611a      	str	r2, [r3, #16]
20000f9a:	687b      	ldr	r3, [r7, #4]
20000f9c:	f04f 0202 	mov.w	r2, #2
20000fa0:	f883 203c 	strb.w	r2, [r3, #60]	; 0x3c
20000fa4:	687b      	ldr	r3, [r7, #4]
20000fa6:	f04f 0200 	mov.w	r2, #0
20000faa:	721a      	strb	r2, [r3, #8]
20000fac:	6878      	ldr	r0, [r7, #4]
20000fae:	f7ff fd3f 	bl	20000a30 <enable_slave_if_required>
20000fb2:	e1bb      	b.n	2000132c <mss_i2c_isr+0x8d4>
20000fb4:	687b      	ldr	r3, [r7, #4]
20000fb6:	6b1a      	ldr	r2, [r3, #48]	; 0x30
20000fb8:	687b      	ldr	r3, [r7, #4]
20000fba:	6b9b      	ldr	r3, [r3, #56]	; 0x38
20000fbc:	441a      	add	r2, r3
20000fbe:	6879      	ldr	r1, [r7, #4]
20000fc0:	6949      	ldr	r1, [r1, #20]
20000fc2:	7a09      	ldrb	r1, [r1, #8]
20000fc4:	b2c9      	uxtb	r1, r1
20000fc6:	7011      	strb	r1, [r2, #0]
20000fc8:	f103 0201 	add.w	r2, r3, #1
20000fcc:	687b      	ldr	r3, [r7, #4]
20000fce:	639a      	str	r2, [r3, #56]	; 0x38
20000fd0:	687b      	ldr	r3, [r7, #4]
20000fd2:	6b9a      	ldr	r2, [r3, #56]	; 0x38
20000fd4:	687b      	ldr	r3, [r7, #4]
20000fd6:	6b5b      	ldr	r3, [r3, #52]	; 0x34
20000fd8:	f103 33ff 	add.w	r3, r3, #4294967295
20000fdc:	429a      	cmp	r2, r3
20000fde:	f0c0 819e 	bcc.w	2000131e <mss_i2c_isr+0x8c6>
20000fe2:	687b      	ldr	r3, [r7, #4]
20000fe4:	699b      	ldr	r3, [r3, #24]
20000fe6:	f04f 0200 	mov.w	r2, #0
20000fea:	609a      	str	r2, [r3, #8]
20000fec:	e19e      	b.n	2000132c <mss_i2c_isr+0x8d4>
20000fee:	687b      	ldr	r3, [r7, #4]
20000ff0:	6b1a      	ldr	r2, [r3, #48]	; 0x30
20000ff2:	687b      	ldr	r3, [r7, #4]
20000ff4:	6b9b      	ldr	r3, [r3, #56]	; 0x38
20000ff6:	4413      	add	r3, r2
20000ff8:	687a      	ldr	r2, [r7, #4]
20000ffa:	6952      	ldr	r2, [r2, #20]
20000ffc:	7a12      	ldrb	r2, [r2, #8]
20000ffe:	b2d2      	uxtb	r2, r2
20001000:	701a      	strb	r2, [r3, #0]
20001002:	687b      	ldr	r3, [r7, #4]
20001004:	7c1b      	ldrb	r3, [r3, #16]
20001006:	f003 0301 	and.w	r3, r3, #1
2000100a:	737b      	strb	r3, [r7, #13]
2000100c:	687b      	ldr	r3, [r7, #4]
2000100e:	7b7a      	ldrb	r2, [r7, #13]
20001010:	f883 2070 	strb.w	r2, [r3, #112]	; 0x70
20001014:	7b7b      	ldrb	r3, [r7, #13]
20001016:	2b00      	cmp	r3, #0
20001018:	d108      	bne.n	2000102c <mss_i2c_isr+0x5d4>
2000101a:	687b      	ldr	r3, [r7, #4]
2000101c:	699b      	ldr	r3, [r3, #24]
2000101e:	f04f 0201 	mov.w	r2, #1
20001022:	611a      	str	r2, [r3, #16]
20001024:	6878      	ldr	r0, [r7, #4]
20001026:	f7ff fd03 	bl	20000a30 <enable_slave_if_required>
2000102a:	e008      	b.n	2000103e <mss_i2c_isr+0x5e6>
2000102c:	687b      	ldr	r3, [r7, #4]
2000102e:	8a5b      	ldrh	r3, [r3, #18]
20001030:	b21b      	sxth	r3, r3
20001032:	4618      	mov	r0, r3
20001034:	f7ff fb6a 	bl	2000070c <NVIC_DisableIRQ>
20001038:	f04f 0300 	mov.w	r3, #0
2000103c:	73bb      	strb	r3, [r7, #14]
2000103e:	687b      	ldr	r3, [r7, #4]
20001040:	f04f 0200 	mov.w	r2, #0
20001044:	721a      	strb	r2, [r3, #8]
20001046:	687b      	ldr	r3, [r7, #4]
20001048:	f04f 0200 	mov.w	r2, #0
2000104c:	f883 203c 	strb.w	r2, [r3, #60]	; 0x3c
20001050:	e16c      	b.n	2000132c <mss_i2c_isr+0x8d4>
20001052:	687b      	ldr	r3, [r7, #4]
20001054:	699b      	ldr	r3, [r3, #24]
20001056:	f04f 0201 	mov.w	r2, #1
2000105a:	609a      	str	r2, [r3, #8]
2000105c:	687b      	ldr	r3, [r7, #4]
2000105e:	f04f 0200 	mov.w	r2, #0
20001062:	721a      	strb	r2, [r3, #8]
20001064:	687b      	ldr	r3, [r7, #4]
20001066:	f04f 0200 	mov.w	r2, #0
2000106a:	f883 205c 	strb.w	r2, [r3, #92]	; 0x5c
2000106e:	687b      	ldr	r3, [r7, #4]
20001070:	f893 3071 	ldrb.w	r3, [r3, #113]	; 0x71
20001074:	2b00      	cmp	r3, #0
20001076:	f000 8154 	beq.w	20001322 <mss_i2c_isr+0x8ca>
2000107a:	687b      	ldr	r3, [r7, #4]
2000107c:	699b      	ldr	r3, [r3, #24]
2000107e:	f04f 0201 	mov.w	r2, #1
20001082:	615a      	str	r2, [r3, #20]
20001084:	e152      	b.n	2000132c <mss_i2c_isr+0x8d4>
20001086:	687b      	ldr	r3, [r7, #4]
20001088:	f04f 0201 	mov.w	r2, #1
2000108c:	f883 2071 	strb.w	r2, [r3, #113]	; 0x71
20001090:	687b      	ldr	r3, [r7, #4]
20001092:	f04f 0204 	mov.w	r2, #4
20001096:	721a      	strb	r2, [r3, #8]
20001098:	687b      	ldr	r3, [r7, #4]
2000109a:	f04f 0200 	mov.w	r2, #0
2000109e:	659a      	str	r2, [r3, #88]	; 0x58
200010a0:	687b      	ldr	r3, [r7, #4]
200010a2:	f04f 0200 	mov.w	r2, #0
200010a6:	60da      	str	r2, [r3, #12]
200010a8:	687b      	ldr	r3, [r7, #4]
200010aa:	699b      	ldr	r3, [r3, #24]
200010ac:	695b      	ldr	r3, [r3, #20]
200010ae:	2b00      	cmp	r3, #0
200010b0:	d009      	beq.n	200010c6 <mss_i2c_isr+0x66e>
200010b2:	687b      	ldr	r3, [r7, #4]
200010b4:	699b      	ldr	r3, [r3, #24]
200010b6:	f04f 0200 	mov.w	r2, #0
200010ba:	615a      	str	r2, [r3, #20]
200010bc:	687b      	ldr	r3, [r7, #4]
200010be:	f04f 0201 	mov.w	r2, #1
200010c2:	f883 2071 	strb.w	r2, [r3, #113]	; 0x71
200010c6:	687b      	ldr	r3, [r7, #4]
200010c8:	f04f 0201 	mov.w	r2, #1
200010cc:	f883 205c 	strb.w	r2, [r3, #92]	; 0x5c
200010d0:	e12c      	b.n	2000132c <mss_i2c_isr+0x8d4>
200010d2:	687b      	ldr	r3, [r7, #4]
200010d4:	6d1b      	ldr	r3, [r3, #80]	; 0x50
200010d6:	2b00      	cmp	r3, #0
200010d8:	d01c      	beq.n	20001114 <mss_i2c_isr+0x6bc>
200010da:	687b      	ldr	r3, [r7, #4]
200010dc:	6d9a      	ldr	r2, [r3, #88]	; 0x58
200010de:	687b      	ldr	r3, [r7, #4]
200010e0:	6d5b      	ldr	r3, [r3, #84]	; 0x54
200010e2:	429a      	cmp	r2, r3
200010e4:	d216      	bcs.n	20001114 <mss_i2c_isr+0x6bc>
200010e6:	687b      	ldr	r3, [r7, #4]
200010e8:	695b      	ldr	r3, [r3, #20]
200010ea:	7a1b      	ldrb	r3, [r3, #8]
200010ec:	733b      	strb	r3, [r7, #12]
200010ee:	687b      	ldr	r3, [r7, #4]
200010f0:	6d1a      	ldr	r2, [r3, #80]	; 0x50
200010f2:	687b      	ldr	r3, [r7, #4]
200010f4:	6d9b      	ldr	r3, [r3, #88]	; 0x58
200010f6:	441a      	add	r2, r3
200010f8:	7b39      	ldrb	r1, [r7, #12]
200010fa:	7011      	strb	r1, [r2, #0]
200010fc:	f103 0201 	add.w	r2, r3, #1
20001100:	687b      	ldr	r3, [r7, #4]
20001102:	659a      	str	r2, [r3, #88]	; 0x58
20001104:	687b      	ldr	r3, [r7, #4]
20001106:	68db      	ldr	r3, [r3, #12]
20001108:	ea4f 2203 	mov.w	r2, r3, lsl #8
2000110c:	7b3b      	ldrb	r3, [r7, #12]
2000110e:	441a      	add	r2, r3
20001110:	687b      	ldr	r3, [r7, #4]
20001112:	60da      	str	r2, [r3, #12]
20001114:	687b      	ldr	r3, [r7, #4]
20001116:	6d9a      	ldr	r2, [r3, #88]	; 0x58
20001118:	687b      	ldr	r3, [r7, #4]
2000111a:	6d5b      	ldr	r3, [r3, #84]	; 0x54
2000111c:	429a      	cmp	r2, r3
2000111e:	f0c0 8102 	bcc.w	20001326 <mss_i2c_isr+0x8ce>
20001122:	687b      	ldr	r3, [r7, #4]
20001124:	699b      	ldr	r3, [r3, #24]
20001126:	f04f 0200 	mov.w	r2, #0
2000112a:	609a      	str	r2, [r3, #8]
2000112c:	e0fe      	b.n	2000132c <mss_i2c_isr+0x8d4>
2000112e:	687b      	ldr	r3, [r7, #4]
20001130:	7a1b      	ldrb	r3, [r3, #8]
20001132:	2b04      	cmp	r3, #4
20001134:	d135      	bne.n	200011a2 <mss_i2c_isr+0x74a>
20001136:	687b      	ldr	r3, [r7, #4]
20001138:	6d9a      	ldr	r2, [r3, #88]	; 0x58
2000113a:	687b      	ldr	r3, [r7, #4]
2000113c:	6e1b      	ldr	r3, [r3, #96]	; 0x60
2000113e:	429a      	cmp	r2, r3
20001140:	d103      	bne.n	2000114a <mss_i2c_isr+0x6f2>
20001142:	687b      	ldr	r3, [r7, #4]
20001144:	68da      	ldr	r2, [r3, #12]
20001146:	687b      	ldr	r3, [r7, #4]
20001148:	64da      	str	r2, [r3, #76]	; 0x4c
2000114a:	687b      	ldr	r3, [r7, #4]
2000114c:	6e5b      	ldr	r3, [r3, #100]	; 0x64
2000114e:	2b00      	cmp	r3, #0
20001150:	d021      	beq.n	20001196 <mss_i2c_isr+0x73e>
20001152:	687b      	ldr	r3, [r7, #4]
20001154:	6e5b      	ldr	r3, [r3, #100]	; 0x64
20001156:	687a      	ldr	r2, [r7, #4]
20001158:	6d11      	ldr	r1, [r2, #80]	; 0x50
2000115a:	687a      	ldr	r2, [r7, #4]
2000115c:	6d92      	ldr	r2, [r2, #88]	; 0x58
2000115e:	b292      	uxth	r2, r2
20001160:	6878      	ldr	r0, [r7, #4]
20001162:	4798      	blx	r3
20001164:	4603      	mov	r3, r0
20001166:	73fb      	strb	r3, [r7, #15]
20001168:	7bfb      	ldrb	r3, [r7, #15]
2000116a:	2b00      	cmp	r3, #0
2000116c:	d108      	bne.n	20001180 <mss_i2c_isr+0x728>
2000116e:	6878      	ldr	r0, [r7, #4]
20001170:	f7ff fc5e 	bl	20000a30 <enable_slave_if_required>
20001174:	687b      	ldr	r3, [r7, #4]
20001176:	699b      	ldr	r3, [r3, #24]
20001178:	f04f 0201 	mov.w	r2, #1
2000117c:	609a      	str	r2, [r3, #8]
2000117e:	e017      	b.n	200011b0 <mss_i2c_isr+0x758>
20001180:	687b      	ldr	r3, [r7, #4]
20001182:	699b      	ldr	r3, [r3, #24]
20001184:	f04f 0200 	mov.w	r2, #0
20001188:	609a      	str	r2, [r3, #8]
2000118a:	687b      	ldr	r3, [r7, #4]
2000118c:	f04f 0200 	mov.w	r2, #0
20001190:	f883 2068 	strb.w	r2, [r3, #104]	; 0x68
20001194:	e00c      	b.n	200011b0 <mss_i2c_isr+0x758>
20001196:	687b      	ldr	r3, [r7, #4]
20001198:	699b      	ldr	r3, [r3, #24]
2000119a:	f04f 0201 	mov.w	r2, #1
2000119e:	609a      	str	r2, [r3, #8]
200011a0:	e006      	b.n	200011b0 <mss_i2c_isr+0x758>
200011a2:	687b      	ldr	r3, [r7, #4]
200011a4:	f04f 0200 	mov.w	r2, #0
200011a8:	64da      	str	r2, [r3, #76]	; 0x4c
200011aa:	6878      	ldr	r0, [r7, #4]
200011ac:	f7ff fc40 	bl	20000a30 <enable_slave_if_required>
200011b0:	687b      	ldr	r3, [r7, #4]
200011b2:	f04f 0200 	mov.w	r2, #0
200011b6:	f883 205c 	strb.w	r2, [r3, #92]	; 0x5c
200011ba:	687b      	ldr	r3, [r7, #4]
200011bc:	f893 3071 	ldrb.w	r3, [r3, #113]	; 0x71
200011c0:	2b00      	cmp	r3, #0
200011c2:	d004      	beq.n	200011ce <mss_i2c_isr+0x776>
200011c4:	687b      	ldr	r3, [r7, #4]
200011c6:	699b      	ldr	r3, [r3, #24]
200011c8:	f04f 0201 	mov.w	r2, #1
200011cc:	615a      	str	r2, [r3, #20]
200011ce:	687b      	ldr	r3, [r7, #4]
200011d0:	f04f 0200 	mov.w	r2, #0
200011d4:	721a      	strb	r2, [r3, #8]
200011d6:	e0a9      	b.n	2000132c <mss_i2c_isr+0x8d4>
200011d8:	687b      	ldr	r3, [r7, #4]
200011da:	f04f 0200 	mov.w	r2, #0
200011de:	721a      	strb	r2, [r3, #8]
200011e0:	687b      	ldr	r3, [r7, #4]
200011e2:	f04f 0200 	mov.w	r2, #0
200011e6:	64da      	str	r2, [r3, #76]	; 0x4c
200011e8:	687b      	ldr	r3, [r7, #4]
200011ea:	f893 305c 	ldrb.w	r3, [r3, #92]	; 0x5c
200011ee:	b2db      	uxtb	r3, r3
200011f0:	2b01      	cmp	r3, #1
200011f2:	d104      	bne.n	200011fe <mss_i2c_isr+0x7a6>
200011f4:	687b      	ldr	r3, [r7, #4]
200011f6:	f04f 0202 	mov.w	r2, #2
200011fa:	f883 205c 	strb.w	r2, [r3, #92]	; 0x5c
200011fe:	6878      	ldr	r0, [r7, #4]
20001200:	f7ff fc16 	bl	20000a30 <enable_slave_if_required>
20001204:	e092      	b.n	2000132c <mss_i2c_isr+0x8d4>
20001206:	7afb      	ldrb	r3, [r7, #11]
20001208:	b2db      	uxtb	r3, r3
2000120a:	2ba8      	cmp	r3, #168	; 0xa8
2000120c:	d11b      	bne.n	20001246 <mss_i2c_isr+0x7ee>
2000120e:	687b      	ldr	r3, [r7, #4]
20001210:	f04f 0205 	mov.w	r2, #5
20001214:	721a      	strb	r2, [r3, #8]
20001216:	687b      	ldr	r3, [r7, #4]
20001218:	f04f 0200 	mov.w	r2, #0
2000121c:	60da      	str	r2, [r3, #12]
2000121e:	687b      	ldr	r3, [r7, #4]
20001220:	f04f 0201 	mov.w	r2, #1
20001224:	f883 205c 	strb.w	r2, [r3, #92]	; 0x5c
20001228:	687b      	ldr	r3, [r7, #4]
2000122a:	699b      	ldr	r3, [r3, #24]
2000122c:	695b      	ldr	r3, [r3, #20]
2000122e:	2b00      	cmp	r3, #0
20001230:	d009      	beq.n	20001246 <mss_i2c_isr+0x7ee>
20001232:	687b      	ldr	r3, [r7, #4]
20001234:	699b      	ldr	r3, [r3, #24]
20001236:	f04f 0200 	mov.w	r2, #0
2000123a:	615a      	str	r2, [r3, #20]
2000123c:	687b      	ldr	r3, [r7, #4]
2000123e:	f04f 0201 	mov.w	r2, #1
20001242:	f883 2071 	strb.w	r2, [r3, #113]	; 0x71
20001246:	687b      	ldr	r3, [r7, #4]
20001248:	6cda      	ldr	r2, [r3, #76]	; 0x4c
2000124a:	687b      	ldr	r3, [r7, #4]
2000124c:	6c9b      	ldr	r3, [r3, #72]	; 0x48
2000124e:	429a      	cmp	r2, r3
20001250:	d305      	bcc.n	2000125e <mss_i2c_isr+0x806>
20001252:	687b      	ldr	r3, [r7, #4]
20001254:	695b      	ldr	r3, [r3, #20]
20001256:	f04f 32ff 	mov.w	r2, #4294967295
2000125a:	721a      	strb	r2, [r3, #8]
2000125c:	e00c      	b.n	20001278 <mss_i2c_isr+0x820>
2000125e:	687b      	ldr	r3, [r7, #4]
20001260:	695a      	ldr	r2, [r3, #20]
20001262:	687b      	ldr	r3, [r7, #4]
20001264:	6c59      	ldr	r1, [r3, #68]	; 0x44
20001266:	687b      	ldr	r3, [r7, #4]
20001268:	6cdb      	ldr	r3, [r3, #76]	; 0x4c
2000126a:	4419      	add	r1, r3
2000126c:	7809      	ldrb	r1, [r1, #0]
2000126e:	7211      	strb	r1, [r2, #8]
20001270:	f103 0201 	add.w	r2, r3, #1
20001274:	687b      	ldr	r3, [r7, #4]
20001276:	64da      	str	r2, [r3, #76]	; 0x4c
20001278:	687b      	ldr	r3, [r7, #4]
2000127a:	6cda      	ldr	r2, [r3, #76]	; 0x4c
2000127c:	687b      	ldr	r3, [r7, #4]
2000127e:	6c9b      	ldr	r3, [r3, #72]	; 0x48
20001280:	429a      	cmp	r2, r3
20001282:	d352      	bcc.n	2000132a <mss_i2c_isr+0x8d2>
20001284:	687b      	ldr	r3, [r7, #4]
20001286:	699b      	ldr	r3, [r3, #24]
20001288:	f04f 0200 	mov.w	r2, #0
2000128c:	609a      	str	r2, [r3, #8]
2000128e:	687b      	ldr	r3, [r7, #4]
20001290:	f04f 0200 	mov.w	r2, #0
20001294:	64da      	str	r2, [r3, #76]	; 0x4c
20001296:	e049      	b.n	2000132c <mss_i2c_isr+0x8d4>
20001298:	687b      	ldr	r3, [r7, #4]
2000129a:	f04f 0200 	mov.w	r2, #0
2000129e:	64da      	str	r2, [r3, #76]	; 0x4c
200012a0:	687b      	ldr	r3, [r7, #4]
200012a2:	699b      	ldr	r3, [r3, #24]
200012a4:	f04f 0201 	mov.w	r2, #1
200012a8:	609a      	str	r2, [r3, #8]
200012aa:	687b      	ldr	r3, [r7, #4]
200012ac:	f04f 0200 	mov.w	r2, #0
200012b0:	f883 205c 	strb.w	r2, [r3, #92]	; 0x5c
200012b4:	687b      	ldr	r3, [r7, #4]
200012b6:	f893 3071 	ldrb.w	r3, [r3, #113]	; 0x71
200012ba:	2b00      	cmp	r3, #0
200012bc:	d004      	beq.n	200012c8 <mss_i2c_isr+0x870>
200012be:	687b      	ldr	r3, [r7, #4]
200012c0:	699b      	ldr	r3, [r3, #24]
200012c2:	f04f 0201 	mov.w	r2, #1
200012c6:	615a      	str	r2, [r3, #20]
200012c8:	687b      	ldr	r3, [r7, #4]
200012ca:	f04f 0200 	mov.w	r2, #0
200012ce:	721a      	strb	r2, [r3, #8]
200012d0:	e02c      	b.n	2000132c <mss_i2c_isr+0x8d4>
200012d2:	687b      	ldr	r3, [r7, #4]
200012d4:	699b      	ldr	r3, [r3, #24]
200012d6:	f04f 0200 	mov.w	r2, #0
200012da:	615a      	str	r2, [r3, #20]
200012dc:	687b      	ldr	r3, [r7, #4]
200012de:	f04f 0200 	mov.w	r2, #0
200012e2:	721a      	strb	r2, [r3, #8]
200012e4:	687b      	ldr	r3, [r7, #4]
200012e6:	f04f 0200 	mov.w	r2, #0
200012ea:	64da      	str	r2, [r3, #76]	; 0x4c
200012ec:	687b      	ldr	r3, [r7, #4]
200012ee:	f893 303c 	ldrb.w	r3, [r3, #60]	; 0x3c
200012f2:	b2db      	uxtb	r3, r3
200012f4:	2b01      	cmp	r3, #1
200012f6:	d104      	bne.n	20001302 <mss_i2c_isr+0x8aa>
200012f8:	687b      	ldr	r3, [r7, #4]
200012fa:	f04f 0202 	mov.w	r2, #2
200012fe:	f883 203c 	strb.w	r2, [r3, #60]	; 0x3c
20001302:	687b      	ldr	r3, [r7, #4]
20001304:	f893 305c 	ldrb.w	r3, [r3, #92]	; 0x5c
20001308:	b2db      	uxtb	r3, r3
2000130a:	2b01      	cmp	r3, #1
2000130c:	d10e      	bne.n	2000132c <mss_i2c_isr+0x8d4>
2000130e:	687b      	ldr	r3, [r7, #4]
20001310:	f04f 0202 	mov.w	r2, #2
20001314:	f883 205c 	strb.w	r2, [r3, #92]	; 0x5c
20001318:	e008      	b.n	2000132c <mss_i2c_isr+0x8d4>
2000131a:	bf00      	nop
2000131c:	e006      	b.n	2000132c <mss_i2c_isr+0x8d4>
2000131e:	bf00      	nop
20001320:	e004      	b.n	2000132c <mss_i2c_isr+0x8d4>
20001322:	bf00      	nop
20001324:	e002      	b.n	2000132c <mss_i2c_isr+0x8d4>
20001326:	bf00      	nop
20001328:	e000      	b.n	2000132c <mss_i2c_isr+0x8d4>
2000132a:	bf00      	nop
2000132c:	7bbb      	ldrb	r3, [r7, #14]
2000132e:	2b00      	cmp	r3, #0
20001330:	d004      	beq.n	2000133c <mss_i2c_isr+0x8e4>
20001332:	687b      	ldr	r3, [r7, #4]
20001334:	699b      	ldr	r3, [r3, #24]
20001336:	f04f 0200 	mov.w	r2, #0
2000133a:	60da      	str	r2, [r3, #12]
2000133c:	687b      	ldr	r3, [r7, #4]
2000133e:	695b      	ldr	r3, [r3, #20]
20001340:	791b      	ldrb	r3, [r3, #4]
20001342:	72fb      	strb	r3, [r7, #11]
20001344:	f107 0710 	add.w	r7, r7, #16
20001348:	46bd      	mov	sp, r7
2000134a:	bd80      	pop	{r7, pc}

2000134c <disable_interrupts>:
2000134c:	b580      	push	{r7, lr}
2000134e:	b082      	sub	sp, #8
20001350:	af00      	add	r7, sp, #0
20001352:	f000 f845 	bl	200013e0 <__get_PRIMASK>
20001356:	4603      	mov	r3, r0
20001358:	607b      	str	r3, [r7, #4]
2000135a:	f04f 0001 	mov.w	r0, #1
2000135e:	f000 f84f 	bl	20001400 <__set_PRIMASK>
20001362:	687b      	ldr	r3, [r7, #4]
20001364:	4618      	mov	r0, r3
20001366:	f107 0708 	add.w	r7, r7, #8
2000136a:	46bd      	mov	sp, r7
2000136c:	bd80      	pop	{r7, pc}
2000136e:	bf00      	nop

20001370 <restore_interrupts>:
20001370:	b580      	push	{r7, lr}
20001372:	b082      	sub	sp, #8
20001374:	af00      	add	r7, sp, #0
20001376:	6078      	str	r0, [r7, #4]
20001378:	6878      	ldr	r0, [r7, #4]
2000137a:	f000 f841 	bl	20001400 <__set_PRIMASK>
2000137e:	f107 0708 	add.w	r7, r7, #8
20001382:	46bd      	mov	sp, r7
20001384:	bd80      	pop	{r7, pc}
20001386:	bf00      	nop

20001388 <I2C0_IRQHandler>:
20001388:	4668      	mov	r0, sp
2000138a:	f020 0107 	bic.w	r1, r0, #7
2000138e:	468d      	mov	sp, r1
20001390:	b589      	push	{r0, r3, r7, lr}
20001392:	af00      	add	r7, sp, #0
20001394:	f241 5070 	movw	r0, #5488	; 0x1570
20001398:	f2c2 0000 	movt	r0, #8192	; 0x2000
2000139c:	f7ff fb5c 	bl	20000a58 <mss_i2c_isr>
200013a0:	f04f 000e 	mov.w	r0, #14
200013a4:	f7ff f9d0 	bl	20000748 <NVIC_ClearPendingIRQ>
200013a8:	46bd      	mov	sp, r7
200013aa:	e8bd 4089 	ldmia.w	sp!, {r0, r3, r7, lr}
200013ae:	4685      	mov	sp, r0
200013b0:	4770      	bx	lr
200013b2:	bf00      	nop

200013b4 <I2C1_IRQHandler>:
200013b4:	4668      	mov	r0, sp
200013b6:	f020 0107 	bic.w	r1, r0, #7
200013ba:	468d      	mov	sp, r1
200013bc:	b589      	push	{r0, r3, r7, lr}
200013be:	af00      	add	r7, sp, #0
200013c0:	f241 50e4 	movw	r0, #5604	; 0x15e4
200013c4:	f2c2 0000 	movt	r0, #8192	; 0x2000
200013c8:	f7ff fb46 	bl	20000a58 <mss_i2c_isr>
200013cc:	f04f 0011 	mov.w	r0, #17
200013d0:	f7ff f9ba 	bl	20000748 <NVIC_ClearPendingIRQ>
200013d4:	46bd      	mov	sp, r7
200013d6:	e8bd 4089 	ldmia.w	sp!, {r0, r3, r7, lr}
200013da:	4685      	mov	sp, r0
200013dc:	4770      	bx	lr
200013de:	bf00      	nop

200013e0 <__get_PRIMASK>:
200013e0:	b480      	push	{r7}
200013e2:	b083      	sub	sp, #12
200013e4:	af00      	add	r7, sp, #0
200013e6:	f04f 0300 	mov.w	r3, #0
200013ea:	607b      	str	r3, [r7, #4]
200013ec:	f3ef 8310 	mrs	r3, PRIMASK
200013f0:	607b      	str	r3, [r7, #4]
200013f2:	687b      	ldr	r3, [r7, #4]
200013f4:	4618      	mov	r0, r3
200013f6:	f107 070c 	add.w	r7, r7, #12
200013fa:	46bd      	mov	sp, r7
200013fc:	bc80      	pop	{r7}
200013fe:	4770      	bx	lr

20001400 <__set_PRIMASK>:
20001400:	b480      	push	{r7}
20001402:	b083      	sub	sp, #12
20001404:	af00      	add	r7, sp, #0
20001406:	6078      	str	r0, [r7, #4]
20001408:	687b      	ldr	r3, [r7, #4]
2000140a:	f383 8810 	msr	PRIMASK, r3
2000140e:	f107 070c 	add.w	r7, r7, #12
20001412:	46bd      	mov	sp, r7
20001414:	bc80      	pop	{r7}
20001416:	4770      	bx	lr

20001418 <SystemInit>:
20001418:	b480      	push	{r7}
2000141a:	af00      	add	r7, sp, #0
2000141c:	46bd      	mov	sp, r7
2000141e:	bc80      	pop	{r7}
20001420:	4770      	bx	lr
20001422:	bf00      	nop

20001424 <__libc_init_array>:
20001424:	b570      	push	{r4, r5, r6, lr}
20001426:	f241 5660 	movw	r6, #5472	; 0x1560
2000142a:	f241 5560 	movw	r5, #5472	; 0x1560
2000142e:	f2c2 0600 	movt	r6, #8192	; 0x2000
20001432:	f2c2 0500 	movt	r5, #8192	; 0x2000
20001436:	1b76      	subs	r6, r6, r5
20001438:	10b6      	asrs	r6, r6, #2
2000143a:	d006      	beq.n	2000144a <__libc_init_array+0x26>
2000143c:	2400      	movs	r4, #0
2000143e:	f855 3024 	ldr.w	r3, [r5, r4, lsl #2]
20001442:	3401      	adds	r4, #1
20001444:	4798      	blx	r3
20001446:	42a6      	cmp	r6, r4
20001448:	d8f9      	bhi.n	2000143e <__libc_init_array+0x1a>
2000144a:	f241 5560 	movw	r5, #5472	; 0x1560
2000144e:	f241 5664 	movw	r6, #5476	; 0x1564
20001452:	f2c2 0500 	movt	r5, #8192	; 0x2000
20001456:	f2c2 0600 	movt	r6, #8192	; 0x2000
2000145a:	1b76      	subs	r6, r6, r5
2000145c:	f000 f874 	bl	20001548 <_init>
20001460:	10b6      	asrs	r6, r6, #2
20001462:	d006      	beq.n	20001472 <__libc_init_array+0x4e>
20001464:	2400      	movs	r4, #0
20001466:	f855 3024 	ldr.w	r3, [r5, r4, lsl #2]
2000146a:	3401      	adds	r4, #1
2000146c:	4798      	blx	r3
2000146e:	42a6      	cmp	r6, r4
20001470:	d8f9      	bhi.n	20001466 <__libc_init_array+0x42>
20001472:	bd70      	pop	{r4, r5, r6, pc}

20001474 <memset>:
20001474:	2a03      	cmp	r2, #3
20001476:	b2c9      	uxtb	r1, r1
20001478:	b430      	push	{r4, r5}
2000147a:	d807      	bhi.n	2000148c <memset+0x18>
2000147c:	b122      	cbz	r2, 20001488 <memset+0x14>
2000147e:	2300      	movs	r3, #0
20001480:	54c1      	strb	r1, [r0, r3]
20001482:	3301      	adds	r3, #1
20001484:	4293      	cmp	r3, r2
20001486:	d1fb      	bne.n	20001480 <memset+0xc>
20001488:	bc30      	pop	{r4, r5}
2000148a:	4770      	bx	lr
2000148c:	eb00 0c02 	add.w	ip, r0, r2
20001490:	4603      	mov	r3, r0
20001492:	e001      	b.n	20001498 <memset+0x24>
20001494:	f803 1c01 	strb.w	r1, [r3, #-1]
20001498:	f003 0403 	and.w	r4, r3, #3
2000149c:	461a      	mov	r2, r3
2000149e:	3301      	adds	r3, #1
200014a0:	2c00      	cmp	r4, #0
200014a2:	d1f7      	bne.n	20001494 <memset+0x20>
200014a4:	f04f 3301 	mov.w	r3, #16843009	; 0x1010101
200014a8:	ebc2 040c 	rsb	r4, r2, ip
200014ac:	fb03 f301 	mul.w	r3, r3, r1
200014b0:	e01f      	b.n	200014f2 <memset+0x7e>
200014b2:	f842 3c40 	str.w	r3, [r2, #-64]
200014b6:	f842 3c3c 	str.w	r3, [r2, #-60]
200014ba:	f842 3c38 	str.w	r3, [r2, #-56]
200014be:	f842 3c34 	str.w	r3, [r2, #-52]
200014c2:	f842 3c30 	str.w	r3, [r2, #-48]
200014c6:	f842 3c2c 	str.w	r3, [r2, #-44]
200014ca:	f842 3c28 	str.w	r3, [r2, #-40]
200014ce:	f842 3c24 	str.w	r3, [r2, #-36]
200014d2:	f842 3c20 	str.w	r3, [r2, #-32]
200014d6:	f842 3c1c 	str.w	r3, [r2, #-28]
200014da:	f842 3c18 	str.w	r3, [r2, #-24]
200014de:	f842 3c14 	str.w	r3, [r2, #-20]
200014e2:	f842 3c10 	str.w	r3, [r2, #-16]
200014e6:	f842 3c0c 	str.w	r3, [r2, #-12]
200014ea:	f842 3c08 	str.w	r3, [r2, #-8]
200014ee:	f842 3c04 	str.w	r3, [r2, #-4]
200014f2:	4615      	mov	r5, r2
200014f4:	3240      	adds	r2, #64	; 0x40
200014f6:	2c3f      	cmp	r4, #63	; 0x3f
200014f8:	f1a4 0440 	sub.w	r4, r4, #64	; 0x40
200014fc:	dcd9      	bgt.n	200014b2 <memset+0x3e>
200014fe:	462a      	mov	r2, r5
20001500:	ebc5 040c 	rsb	r4, r5, ip
20001504:	e007      	b.n	20001516 <memset+0xa2>
20001506:	f842 3c10 	str.w	r3, [r2, #-16]
2000150a:	f842 3c0c 	str.w	r3, [r2, #-12]
2000150e:	f842 3c08 	str.w	r3, [r2, #-8]
20001512:	f842 3c04 	str.w	r3, [r2, #-4]
20001516:	4615      	mov	r5, r2
20001518:	3210      	adds	r2, #16
2000151a:	2c0f      	cmp	r4, #15
2000151c:	f1a4 0410 	sub.w	r4, r4, #16
20001520:	dcf1      	bgt.n	20001506 <memset+0x92>
20001522:	462a      	mov	r2, r5
20001524:	ebc5 050c 	rsb	r5, r5, ip
20001528:	e001      	b.n	2000152e <memset+0xba>
2000152a:	f842 3c04 	str.w	r3, [r2, #-4]
2000152e:	4614      	mov	r4, r2
20001530:	3204      	adds	r2, #4
20001532:	2d03      	cmp	r5, #3
20001534:	f1a5 0504 	sub.w	r5, r5, #4
20001538:	dcf7      	bgt.n	2000152a <memset+0xb6>
2000153a:	e001      	b.n	20001540 <memset+0xcc>
2000153c:	f804 1b01 	strb.w	r1, [r4], #1
20001540:	4564      	cmp	r4, ip
20001542:	d3fb      	bcc.n	2000153c <memset+0xc8>
20001544:	e7a0      	b.n	20001488 <memset+0x14>
20001546:	bf00      	nop

20001548 <_init>:
20001548:	b5f8      	push	{r3, r4, r5, r6, r7, lr}
2000154a:	bf00      	nop
2000154c:	bcf8      	pop	{r3, r4, r5, r6, r7}
2000154e:	bc08      	pop	{r3}
20001550:	469e      	mov	lr, r3
20001552:	4770      	bx	lr

20001554 <_fini>:
20001554:	b5f8      	push	{r3, r4, r5, r6, r7, lr}
20001556:	bf00      	nop
20001558:	bcf8      	pop	{r3, r4, r5, r6, r7}
2000155a:	bc08      	pop	{r3}
2000155c:	469e      	mov	lr, r3
2000155e:	4770      	bx	lr

20001560 <__frame_dummy_init_array_entry>:
20001560:	0485 2000                                   ... 

20001564 <__do_global_dtors_aux_fini_array_entry>:
20001564:	0471 2000                                   q.. 
